
task_4.elf:     file format elf32-littlenios2
task_4.elf
architecture: nios2:r1, flags 0x00000112:
EXEC_P, HAS_SYMS, D_PAGED
start address 0x00800238

Program Header:
    LOAD off    0x00001000 vaddr 0x00800000 paddr 0x00800000 align 2**12
         filesz 0x00000020 memsz 0x00000020 flags r-x
    LOAD off    0x00001020 vaddr 0x00800020 paddr 0x00800020 align 2**12
         filesz 0x000142d0 memsz 0x000142d0 flags r-x
    LOAD off    0x000152f0 vaddr 0x008142f0 paddr 0x00814e94 align 2**12
         filesz 0x00000ba4 memsz 0x00000ba4 flags rw-
    LOAD off    0x00016a38 vaddr 0x00815a38 paddr 0x00815a38 align 2**12
         filesz 0x00000000 memsz 0x00000158 flags rw-

Sections:
Idx Name          Size      VMA       LMA       File off  Algn
  0 .entry        00000020  00800000  00800000  00001000  2**5
                  CONTENTS, ALLOC, LOAD, READONLY, CODE
  1 .exceptions   00000218  00800020  00800020  00001020  2**2
                  CONTENTS, ALLOC, LOAD, READONLY, CODE
  2 .text         00013860  00800238  00800238  00001238  2**2
                  CONTENTS, ALLOC, LOAD, READONLY, CODE
  3 .rodata       00000858  00813a98  00813a98  00014a98  2**2
                  CONTENTS, ALLOC, LOAD, READONLY, DATA
  4 .rwdata       00000ba4  008142f0  00814e94  000152f0  2**2
                  CONTENTS, ALLOC, LOAD, DATA, SMALL_DATA
  5 .bss          00000158  00815a38  00815a38  00016a38  2**2
                  ALLOC, SMALL_DATA
  6 .sdram        00000000  00815b90  00815b90  00015e94  2**0
                  CONTENTS
  7 .comment      0000002d  00000000  00000000  00015e94  2**0
                  CONTENTS, READONLY
  8 .debug_aranges 000012f0  00000000  00000000  00015ec8  2**3
                  CONTENTS, READONLY, DEBUGGING, OCTETS
  9 .debug_info   00033a85  00000000  00000000  000171b8  2**0
                  CONTENTS, READONLY, DEBUGGING, OCTETS
 10 .debug_abbrev 0000ce5b  00000000  00000000  0004ac3d  2**0
                  CONTENTS, READONLY, DEBUGGING, OCTETS
 11 .debug_line   0001b7e4  00000000  00000000  00057a98  2**0
                  CONTENTS, READONLY, DEBUGGING, OCTETS
 12 .debug_frame  00002a50  00000000  00000000  0007327c  2**2
                  CONTENTS, READONLY, DEBUGGING, OCTETS
 13 .debug_str    0000465b  00000000  00000000  00075ccc  2**0
                  CONTENTS, READONLY, DEBUGGING, OCTETS
 14 .debug_loc    000254e4  00000000  00000000  0007a327  2**0
                  CONTENTS, READONLY, DEBUGGING, OCTETS
 15 .debug_alt_sim_info 00000030  00000000  00000000  0009f80c  2**2
                  CONTENTS, READONLY, DEBUGGING, OCTETS
 16 .debug_ranges 00002e28  00000000  00000000  0009f840  2**3
                  CONTENTS, READONLY, DEBUGGING, OCTETS
 17 .thread_model 00000003  00000000  00000000  000a5d92  2**0
                  CONTENTS, READONLY
 18 .cpu          00000003  00000000  00000000  000a5d95  2**0
                  CONTENTS, READONLY
 19 .qsys         00000001  00000000  00000000  000a5d98  2**0
                  CONTENTS, READONLY
 20 .simulation_enabled 00000001  00000000  00000000  000a5d99  2**0
                  CONTENTS, READONLY
 21 .sysid_hash   00000004  00000000  00000000  000a5d9a  2**0
                  CONTENTS, READONLY
 22 .sysid_base   00000004  00000000  00000000  000a5d9e  2**0
                  CONTENTS, READONLY
 23 .sysid_time   00000004  00000000  00000000  000a5da2  2**0
                  CONTENTS, READONLY
 24 .stderr_dev   00000009  00000000  00000000  000a5da6  2**0
                  CONTENTS, READONLY
 25 .stdin_dev    00000009  00000000  00000000  000a5daf  2**0
                  CONTENTS, READONLY
 26 .stdout_dev   00000009  00000000  00000000  000a5db8  2**0
                  CONTENTS, READONLY
 27 .sopc_system_name 00000012  00000000  00000000  000a5dc1  2**0
                  CONTENTS, READONLY
 28 .quartus_project_dir 0000002b  00000000  00000000  000a5dd3  2**0
                  CONTENTS, READONLY
 29 .jdi          00005099  00000000  00000000  000a5dfe  2**0
                  CONTENTS, READONLY
 30 .sopcinfo     0003b0ff  00000000  00000000  000aae97  2**0
                  CONTENTS, READONLY
SYMBOL TABLE:
00800000 l    d  .entry	00000000 .entry
00800020 l    d  .exceptions	00000000 .exceptions
00800238 l    d  .text	00000000 .text
00813a98 l    d  .rodata	00000000 .rodata
008142f0 l    d  .rwdata	00000000 .rwdata
00815a38 l    d  .bss	00000000 .bss
00815b90 l    d  .sdram	00000000 .sdram
00000000 l    d  .comment	00000000 .comment
00000000 l    d  .debug_aranges	00000000 .debug_aranges
00000000 l    d  .debug_info	00000000 .debug_info
00000000 l    d  .debug_abbrev	00000000 .debug_abbrev
00000000 l    d  .debug_line	00000000 .debug_line
00000000 l    d  .debug_frame	00000000 .debug_frame
00000000 l    d  .debug_str	00000000 .debug_str
00000000 l    d  .debug_loc	00000000 .debug_loc
00000000 l    d  .debug_alt_sim_info	00000000 .debug_alt_sim_info
00000000 l    d  .debug_ranges	00000000 .debug_ranges
00000000 l    df *ABS*	00000000 ../task_4_bsp//obj/HAL/src/crt0.o
00800280 l       .text	00000000 alt_after_alt_main
00000000 l    df *ABS*	00000000 alt_irq_handler.c
00000000 l    df *ABS*	00000000 alt_instruction_exception_entry.c
00000000 l    df *ABS*	00000000 hello_world.c
00000000 l    df *ABS*	00000000 s_cos.c
00000000 l    df *ABS*	00000000 e_rem_pio2.c
00813ac8 l     O .rodata	00000080 npio2_hw
00813b48 l     O .rodata	00000108 two_over_pi
00000000 l    df *ABS*	00000000 k_cos.c
00000000 l    df *ABS*	00000000 k_rem_pio2.c
00813c90 l     O .rodata	00000010 init_jk
00813c50 l     O .rodata	00000040 PIo2
00000000 l    df *ABS*	00000000 k_sin.c
00000000 l    df *ABS*	00000000 s_floor.c
00000000 l    df *ABS*	00000000 s_scalbn.c
00000000 l    df *ABS*	00000000 lib2-divmod.c
00000000 l    df *ABS*	00000000 addsf3.c
00000000 l    df *ABS*	00000000 divsf3.c
00000000 l    df *ABS*	00000000 mulsf3.c
00000000 l    df *ABS*	00000000 subsf3.c
00000000 l    df *ABS*	00000000 adddf3.c
00000000 l    df *ABS*	00000000 eqdf2.c
00000000 l    df *ABS*	00000000 gedf2.c
00000000 l    df *ABS*	00000000 muldf3.c
00000000 l    df *ABS*	00000000 subdf3.c
00000000 l    df *ABS*	00000000 fixdfsi.c
00000000 l    df *ABS*	00000000 floatsidf.c
00000000 l    df *ABS*	00000000 floatunsidf.c
00000000 l    df *ABS*	00000000 extendsfdf2.c
00000000 l    df *ABS*	00000000 truncdfsf2.c
00000000 l    df *ABS*	00000000 libgcc2.c
00000000 l    df *ABS*	00000000 lib2-mul.c
00000000 l    df *ABS*	00000000 libgcc2.c
00000000 l    df *ABS*	00000000 efgcvt.c
00000000 l    df *ABS*	00000000 impure.c
008142f0 l     O .rwdata	00000424 impure_data
00000000 l    df *ABS*	00000000 printf.c
00000000 l    df *ABS*	00000000 puts.c
00000000 l    df *ABS*	00000000 strlen.c
00000000 l    df *ABS*	00000000 vfprintf.c
00807d94 l     F .text	000000c0 __sbprintf
00813df8 l     O .rodata	00000010 blanks.1
00813de8 l     O .rodata	00000010 zeroes.0
00000000 l    df *ABS*	00000000 wsetup.c
00000000 l    df *ABS*	00000000 dtoa.c
00807fb8 l     F .text	00000220 quorem
00000000 l    df *ABS*	00000000 ecvtbuf.c
00809920 l     F .text	000001f4 print_e
00000000 l    df *ABS*	00000000 fflush.c
00000000 l    df *ABS*	00000000 findfp.c
0080a644 l     F .text	00000008 __fp_lock
0080a658 l     F .text	00000008 __fp_unlock
0080a660 l     F .text	00000168 __sinit.part.0
00000000 l    df *ABS*	00000000 mallocr.c
00000000 l    df *ABS*	00000000 fvwrite.c
00000000 l    df *ABS*	00000000 fwalk.c
00000000 l    df *ABS*	00000000 localeconv.c
00000000 l    df *ABS*	00000000 makebuf.c
00000000 l    df *ABS*	00000000 mallocr.c
00000000 l    df *ABS*	00000000 memchr.c
00000000 l    df *ABS*	00000000 memcpy.c
00000000 l    df *ABS*	00000000 memmove.c
00000000 l    df *ABS*	00000000 memset.c
00000000 l    df *ABS*	00000000 mprec.c
00813eac l     O .rodata	0000000c p05.0
00000000 l    df *ABS*	00000000 mallocr.c
00000000 l    df *ABS*	00000000 sbrkr.c
00000000 l    df *ABS*	00000000 stdio.c
00000000 l    df *ABS*	00000000 strcpy.c
00000000 l    df *ABS*	00000000 vfprintf.c
0080dbbc l     F .text	000000f4 __sprint_r.part.0
0080f028 l     F .text	000000c0 __sbprintf
00813fe0 l     O .rodata	00000010 blanks.1
00813fd0 l     O .rodata	00000010 zeroes.0
00000000 l    df *ABS*	00000000 writer.c
00000000 l    df *ABS*	00000000 closer.c
00000000 l    df *ABS*	00000000 assert.c
00000000 l    df *ABS*	00000000 mallocr.c
00000000 l    df *ABS*	00000000 fclose.c
0080f2e0 l     F .text	000000c0 _fclose_r.part.0
00000000 l    df *ABS*	00000000 fiprintf.c
00000000 l    df *ABS*	00000000 fputwc.c
00000000 l    df *ABS*	00000000 fstatr.c
00000000 l    df *ABS*	00000000 int_errno.c
00000000 l    df *ABS*	00000000 isattyr.c
00000000 l    df *ABS*	00000000 locale.c
00000000 l    df *ABS*	00000000 lseekr.c
00000000 l    df *ABS*	00000000 mbtowc_r.c
00000000 l    df *ABS*	00000000 readr.c
00000000 l    df *ABS*	00000000 strcmp.c
00000000 l    df *ABS*	00000000 vfiprintfr_1.c
00000000 l    df *ABS*	00000000 wbuf.c
00000000 l    df *ABS*	00000000 wcrtomb.c
00000000 l    df *ABS*	00000000 wctomb_r.c
00000000 l    df *ABS*	00000000 abort.c
00000000 l    df *ABS*	00000000 ctype_.c
00000000 l    df *ABS*	00000000 signal.c
00000000 l    df *ABS*	00000000 signalr.c
00000000 l    df *ABS*	00000000 libgcc2.c
00000000 l    df *ABS*	00000000 libgcc2.c
00000000 l    df *ABS*	00000000 lesf2.c
00000000 l    df *ABS*	00000000 divdf3.c
00000000 l    df *ABS*	00000000 ledf2.c
00000000 l    df *ABS*	00000000 unorddf2.c
00000000 l    df *ABS*	00000000 alt_close.c
00811954 l     F .text	0000003c alt_get_errno
00000000 l    df *ABS*	00000000 alt_dev.c
00811a6c l     F .text	0000002c alt_dev_null_write
00000000 l    df *ABS*	00000000 alt_errno.c
00000000 l    df *ABS*	00000000 alt_exit.c
00000000 l    df *ABS*	00000000 alt_fstat.c
00811ad0 l     F .text	0000003c alt_get_errno
00000000 l    df *ABS*	00000000 alt_getpid.c
00000000 l    df *ABS*	00000000 alt_isatty.c
00811be8 l     F .text	0000003c alt_get_errno
00000000 l    df *ABS*	00000000 alt_kill.c
00811cd4 l     F .text	0000003c alt_get_errno
00000000 l    df *ABS*	00000000 alt_load.c
00811e3c l     F .text	00000068 alt_load_section
00000000 l    df *ABS*	00000000 alt_lseek.c
00811f28 l     F .text	0000003c alt_get_errno
00000000 l    df *ABS*	00000000 alt_main.c
00000000 l    df *ABS*	00000000 alt_malloc_lock.c
00000000 l    df *ABS*	00000000 alt_putstr.c
00000000 l    df *ABS*	00000000 alt_read.c
00812144 l     F .text	0000003c alt_get_errno
00000000 l    df *ABS*	00000000 alt_release_fd.c
00000000 l    df *ABS*	00000000 alt_sbrk.c
00814e84 l     O .rwdata	00000004 heap_end
00000000 l    df *ABS*	00000000 alt_times.c
008123b0 l     F .text	0000003c alt_get_errno
00000000 l    df *ABS*	00000000 alt_write.c
00812464 l     F .text	0000003c alt_get_errno
00000000 l    df *ABS*	00000000 alt_sys_init.c
008125a4 l     F .text	00000034 alt_dev_reg
00814e30 l     O .rwdata	0000002c jtag_uart
00000000 l    df *ABS*	00000000 altera_avalon_jtag_uart_fd.c
00000000 l    df *ABS*	00000000 altera_avalon_jtag_uart_read.c
00000000 l    df *ABS*	00000000 altera_avalon_jtag_uart_write.c
00000000 l    df *ABS*	00000000 altera_avalon_timer_sc.c
008128a4 l     F .text	0000007c alt_avalon_timer_sc_irq
00000000 l    df *ABS*	00000000 alt_dcache_flush_all.c
00000000 l    df *ABS*	00000000 alt_dev_llist_insert.c
008129f0 l     F .text	0000003c alt_get_errno
00000000 l    df *ABS*	00000000 alt_do_ctors.c
00000000 l    df *ABS*	00000000 alt_do_dtors.c
00000000 l    df *ABS*	00000000 alt_icache_flush_all.c
00000000 l    df *ABS*	00000000 alt_iic.c
00000000 l    df *ABS*	00000000 alt_iic_isr_register.c
00000000 l    df *ABS*	00000000 alt_io_redirect.c
00812e68 l     F .text	000000d4 alt_open_fd
00000000 l    df *ABS*	00000000 alt_irq_vars.c
00000000 l    df *ABS*	00000000 alt_open.c
00812fb8 l     F .text	0000003c alt_get_errno
00812ff4 l     F .text	000000dc alt_file_locked
00000000 l    df *ABS*	00000000 alt_tick.c
00000000 l    df *ABS*	00000000 altera_nios2_gen2_irq.c
00000000 l    df *ABS*	00000000 alt_find_dev.c
00000000 l    df *ABS*	00000000 alt_find_file.c
00000000 l    df *ABS*	00000000 alt_get_fd.c
00000000 l    df *ABS*	00000000 alt_icache_flush.c
00000000 l    df *ABS*	00000000 atexit.c
00000000 l    df *ABS*	00000000 exit.c
00000000 l    df *ABS*	00000000 fputs.c
00000000 l    df *ABS*	00000000 memcmp.c
00000000 l    df *ABS*	00000000 __atexit.c
00000000 l    df *ABS*	00000000 __call_atexit.c
00815a64 g     O .bss	00000004 alt_instruction_exception_handler
0080d2e8 g     F .text	00000070 _mprec_log10
0080d3d4 g     F .text	00000060 __any_on
0080f738 g     F .text	00000058 _isatty_r
00813eb8 g     O .rodata	00000028 __mprec_tinytens
00812044 g     F .text	0000007c alt_main
0080db30 g     F .text	0000008c strcpy
00805b00 g     F .text	000000cc _puts_r
00815a90 g     O .bss	00000100 alt_irq
0080f884 g     F .text	00000064 _lseek_r
00814e94 g       *ABS*	00000000 __flash_rwdata_start
008041d8 g     F .text	00000080 .hidden __eqdf2
00815b90 g       *ABS*	00000000 __alt_heap_start
008101ec g     F .text	00000060 _kill_r
00805ac8 g     F .text	00000038 printf
0080fbb8 g     F .text	0000006c _wcrtomb_r
0080fd5c g     F .text	00000098 _signal_r
0080dacc g     F .text	0000005c __sseek
0080a9a8 g     F .text	00000010 __sinit
00809b14 g     F .text	0000012c fcvtbuf
0080fa58 g     F .text	00000148 __swbuf_r
0080f790 g     F .text	00000074 _setlocale_r
0080a7c8 g     F .text	00000078 __sfmoreglue
008120e4 g     F .text	00000024 __malloc_unlock
00802c60 g     F .text	000003f4 .hidden __divsf3
0080c028 g     F .text	0000012c memmove
0080a994 g     F .text	00000014 _cleanup
0080c244 g     F .text	000000a4 _Balloc
00812108 g     F .text	0000003c alt_putstr
00804258 g     F .text	000000e8 .hidden __gtdf2
008133dc g     F .text	00000024 altera_nios2_gen2_irq_init
00800000 g     F .entry	0000001c __reset
008123ec g     F .text	00000078 times
0080b410 g     F .text	00000008 __localeconv_l
00800020 g       *ABS*	00000000 __flash_exceptions_start
0080f6d8 g     F .text	00000060 _fstat_r
00815a44 g     O .bss	00000004 errno
0080229c g     F .text	000001e4 floor
0080da44 g     F .text	00000008 __seofread
00815a50 g     O .bss	00000004 alt_argv
0081ce5c g       *ABS*	00000000 _gp
00803454 g     F .text	00000494 .hidden __subsf3
00811bc8 g     F .text	00000020 getpid
00814cb0 g     O .rwdata	00000180 alt_fd_list
00800704 g     F .text	0000074c __ieee754_rem_pio2
00813400 g     F .text	00000090 alt_find_dev
0080bf28 g     F .text	00000100 memcpy
0080a64c g     F .text	0000000c _cleanup_r
00805420 g     F .text	000000b8 .hidden __floatsidf
00812f3c g     F .text	0000007c alt_io_redirect
00811818 g     F .text	000000e8 .hidden __ltdf2
00813a98 g       *ABS*	00000000 __DTOR_END__
00805bcc g     F .text	00000010 puts
008136e0 g     F .text	00000098 alt_exception_cause_generated_bad_addr
0080d244 g     F .text	000000a4 __ratio
0080f00c g     F .text	0000001c __vfiprintf_internal
00812724 g     F .text	000000ec altera_avalon_jtag_uart_read
00805a98 g     F .text	00000030 _printf_r
00802734 g     F .text	00000064 .hidden __udivsi3
00811c24 g     F .text	000000b0 isatty
0080fdf4 g     F .text	000000c4 _raise_r
0080f1a4 g     F .text	00000064 __assert_func
00813f08 g     O .rodata	000000c8 __mprec_tens
00800e50 g     F .text	000004ac __kernel_cos
00810e34 g     F .text	000000b4 .hidden __lesf2
00805970 g     F .text	000000ac gcvtf
00813650 g     F .text	00000090 alt_icache_flush
00815a40 g     O .bss	00000004 __malloc_top_pad
0081024c g     F .text	00000004 _getpid_r
0080b418 g     F .text	0000000c _localeconv_r
0080c6b4 g     F .text	000000b0 __i2b
0080ae08 g     F .text	000004c8 __sfvwrite_r
0080feb8 g     F .text	000000bc __sigtramp_r
0080d998 g     F .text	00000058 _sbrk_r
0080f938 g     F .text	00000064 _read_r
00814e7c g     O .rwdata	00000004 alt_max_fd
0080f3a0 g     F .text	00000070 _fclose_r
0080a5c0 g     F .text	00000084 fflush
00815a3c g     O .bss	00000004 __malloc_max_sbrked_mem
00801fd4 g     F .text	000002c8 __kernel_sin
00805568 g     F .text	000000fc .hidden __extendsfdf2
008038e8 g     F .text	000008f0 .hidden __adddf3
0080cfd8 g     F .text	00000108 __b2d
00810870 g     F .text	000005c4 .hidden __umoddi3
00811f64 g     F .text	000000e0 lseek
00814e5c g     O .rwdata	00000004 _global_impure_ptr
0080d434 g     F .text	00000564 _realloc_r
00815b90 g       *ABS*	00000000 __bss_end
00812d80 g     F .text	000000e8 alt_iic_isr_register
008132d4 g     F .text	00000108 alt_tick
00810250 g     F .text	00000620 .hidden __udivdi3
0080f63c g     F .text	00000024 _fputwc_r
00813ee0 g     O .rodata	00000028 __mprec_bigtens
0080c468 g     F .text	00000138 __s2b
0080fce8 g     F .text	00000018 abort
008054d8 g     F .text	00000090 .hidden __floatunsidf
0080ccf8 g     F .text	00000058 __mcmp
0080a9c8 g     F .text	00000014 __fp_lock_all
00812d34 g     F .text	0000004c alt_ic_irq_enabled
00813230 g     F .text	000000a4 alt_alarm_stop
00815a58 g     O .bss	00000004 alt_irq_active
008000fc g     F .exceptions	000000c8 alt_irq_handler
00814c88 g     O .rwdata	00000028 alt_dev_null
008012fc g     F .text	00000cd8 __kernel_rem_pio2
008129a4 g     F .text	0000004c alt_dcache_flush_all
0080c5a0 g     F .text	00000064 __hi0bits
008053a0 g     F .text	00000080 .hidden __fixdfsi
00814e94 g       *ABS*	00000000 __ram_rwdata_end
00814e74 g     O .rwdata	00000008 alt_dev_list
008124a0 g     F .text	00000104 write
008142f0 g       *ABS*	00000000 __ram_rodata_end
00811b0c g     F .text	000000bc fstat
00811d10 g     F .text	0000012c kill
00811818 g     F .text	000000e8 .hidden __ledf2
0080ca28 g     F .text	00000148 __pow5mult
0080dcc8 g     F .text	00001344 ___vfiprintf_internal_r
00802798 g     F .text	0000005c .hidden __umodsi3
00815b90 g       *ABS*	00000000 end
008001c4 g     F .exceptions	00000074 alt_instruction_exception_entry
00813a98 g       *ABS*	00000000 __CTOR_LIST__
01000000 g       *ABS*	00000000 __alt_stack_pointer
0080a014 g     F .text	00000324 _dcvt
00812920 g     F .text	00000084 alt_avalon_timer_sc_init
008057d4 g     F .text	00000054 .hidden __clzsi2
00812810 g     F .text	00000094 altera_avalon_jtag_uart_write
00800654 g     F .text	000000b0 cos
0080a9b8 g     F .text	00000004 __sfp_lock_acquire
0080be58 g     F .text	000000d0 memchr
00805c74 g     F .text	00002104 ___vfprintf_internal_r
0080ab0c g     F .text	000002fc _free_r
00814144 g     O .rodata	00000180 _ctype_b
0080f804 g     F .text	0000000c __locale_mb_cur_max
00813978 g     F .text	00000120 __call_exitprocs
00814e64 g     O .rwdata	00000004 __malloc_sbrk_base
00800238 g     F .text	0000004c _start
00815a5c g     O .bss	00000004 _alt_tick_rate
00809d68 g     F .text	000002ac _gcvt
0080cb70 g     F .text	00000188 __lshift
00815a60 g     O .bss	00000004 _alt_nticks
00810030 g     F .text	000000a0 signal
00812180 g     F .text	00000108 read
00812614 g     F .text	00000050 alt_sys_init
008138e8 g     F .text	00000090 __register_exitproc
0080c764 g     F .text	000002c4 __multiply
00805828 g     F .text	00000028 .hidden __mulsi3
008142f0 g       *ABS*	00000000 __ram_rwdata_start
00813a98 g       *ABS*	00000000 __ram_rodata_start
00815a68 g     O .bss	00000028 __malloc_current_mallinfo
0080d0e0 g     F .text	00000164 __d2b
00812664 g     F .text	00000060 altera_avalon_jtag_uart_read_fd
00813598 g     F .text	000000b8 alt_get_fd
0080f14c g     F .text	00000058 _close_r
00800284 g     F .text	000000ac generateVector
00813870 g     F .text	00000078 memcmp
00815b90 g       *ABS*	00000000 __alt_stack_base
00807e54 g     F .text	00000164 __swsetup_r
00810ee8 g     F .text	00000930 .hidden __divdf3
0080a840 g     F .text	00000154 __sfp
0080d358 g     F .text	0000007c __copybits
00814714 g     O .rwdata	00000408 __malloc_av_
0080a9c4 g     F .text	00000004 __sinit_lock_release
00804340 g     F .text	000007ac .hidden __muldf3
0080d9f0 g     F .text	00000054 __sread
00813490 g     F .text	00000108 alt_find_file
00812a2c g     F .text	000000a8 alt_dev_llist_insert
008120c0 g     F .text	00000024 __malloc_lock
008122f8 g     F .text	000000b8 sbrk
0080a560 g     F .text	00000060 _fflush_r
0080f21c g     F .text	000000c4 _calloc_r
00815a38 g       *ABS*	00000000 __bss_start
0080c154 g     F .text	000000f0 memset
0080053c g     F .text	00000118 main
00805850 g     F .text	00000024 fcvt
00815a54 g     O .bss	00000004 alt_envp
00815a38 g     O .bss	00000004 __malloc_max_total_mem
008126c4 g     F .text	00000060 altera_avalon_jtag_uart_write_fd
0080fba0 g     F .text	00000018 __swbuf
00810e34 g     F .text	000000b4 .hidden __ltsf2
00809c40 g     F .text	00000128 ecvtbuf
0080db28 g     F .text	00000008 __sclose
01000000 g       *ABS*	00000000 __alt_heap_limit
0080f410 g     F .text	00000070 fclose
00805664 g     F .text	00000170 .hidden __truncdfsf2
008081d8 g     F .text	00001748 _dtoa_r
0080b678 g     F .text	000007e0 _malloc_r
0080fcb8 g     F .text	00000030 __ascii_wctomb
00814e80 g     O .rwdata	00000004 alt_errno
00805a40 g     F .text	00000058 ecvtf
0080f480 g     F .text	00000020 _fiprintf_r
008100d0 g     F .text	00000060 _init_signal
0080b2d0 g     F .text	00000098 _fwalk
0080f8e8 g     F .text	0000000c _mbtowc_r
00802640 g     F .text	00000080 .hidden __divsi3
0080a9f0 g     F .text	0000011c _malloc_trim_r
00813a98 g       *ABS*	00000000 __CTOR_END__
00803054 g     F .text	00000400 .hidden __mulsf3
0080f99c g     F .text	000000b8 strcmp
00813a98 g       *ABS*	00000000 __flash_rodata_start
00813a98 g       *ABS*	00000000 __DTOR_LIST__
008041d8 g     F .text	00000080 .hidden __nedf2
008125d8 g     F .text	0000003c alt_irq_init
00812288 g     F .text	00000070 alt_release_fd
00813ca0 g     O .rodata	00000100 .hidden __clz_tab
00815a48 g     O .bss	00000004 _PathLocale
00813778 g     F .text	00000014 atexit
00800330 g     F .text	0000020c sumVector
0080f0e8 g     F .text	00000064 _write_r
0080f810 g     F .text	00000074 setlocale
00814e60 g     O .rwdata	00000004 _impure_ptr
00815a4c g     O .bss	00000004 alt_argc
0080a338 g     F .text	00000228 __sflush_r
00802480 g     F .text	000001c0 scalbn
00812b38 g     F .text	00000064 _do_dtors
00800020 g       .exceptions	00000000 alt_irq_entry
0080f8f4 g     F .text	00000044 __ascii_mbtowc
0080cf7c g     F .text	0000005c __ulp
0080a9dc g     F .text	00000014 __fp_unlock_all
00805a1c g     F .text	00000024 ecvt
00814e6c g     O .rwdata	00000008 alt_fs_list
00800020 g       *ABS*	00000000 __ram_exceptions_start
0080b424 g     F .text	0000000c localeconv
0080b5e0 g     F .text	00000098 __swhatbuf_r
00812bd0 g     F .text	00000050 alt_ic_isr_register
00814e94 g       *ABS*	00000000 _edata
00815b90 g       *ABS*	00000000 _end
0080f4d8 g     F .text	00000164 __fputwc
00800238 g       *ABS*	00000000 __ram_exceptions_end
008137c0 g     F .text	00000098 _fputs_r
00812ca8 g     F .text	0000008c alt_ic_irq_disable
0080da4c g     F .text	00000080 __swrite
00814e68 g     O .rwdata	00000004 __malloc_trim_threshold
00805874 g     F .text	00000058 fcvtf
0081378c g     F .text	00000034 exit
0080f4a0 g     F .text	00000038 fiprintf
0080fa54 g     F .text	00000004 _vfiprintf_r
0080b368 g     F .text	000000a8 _fwalk_reent
0080cd50 g     F .text	0000022c __mdiff
008026c0 g     F .text	00000074 .hidden __modsi3
01000000 g       *ABS*	00000000 __alt_data_end
00800020 g     F .exceptions	00000000 alt_exception
0080a9bc g     F .text	00000004 __sfp_lock_release
00800000 g       *ABS*	00000000 __alt_mem_sdram
008058cc g     F .text	000000a4 gcvt
00814040 g     O .rodata	00000101 _ctype_
00811900 g     F .text	00000054 .hidden __unorddf2
00811a98 g     F .text	00000038 _exit
0080b430 g     F .text	000001b0 __smakebuf_r
00805bdc g     F .text	00000098 strlen
0080fd00 g     F .text	0000005c _init_signal_r
008130d0 g     F .text	00000160 open
00804258 g     F .text	000000e8 .hidden __gedf2
0080f208 g     F .text	00000014 __assert
0080dcb0 g     F .text	00000018 __sprint_r
00812b9c g     F .text	00000034 alt_icache_flush_all
00813858 g     F .text	00000018 fputs
00814e88 g     O .rwdata	00000004 alt_priority_mask
00812c20 g     F .text	00000088 alt_ic_irq_enable
00807d78 g     F .text	0000001c __vfprintf_internal
0080fcac g     F .text	0000000c _wctomb_r
00804aec g     F .text	000008b4 .hidden __subdf3
0080c604 g     F .text	000000b0 __lo0bits
00814e8c g     O .rwdata	00000008 alt_alarm_list
00812ad4 g     F .text	00000064 _do_ctors
00810130 g     F .text	000000bc __sigtramp
0080fc24 g     F .text	00000088 wcrtomb
00811990 g     F .text	000000dc close
008027f4 g     F .text	0000046c .hidden __addsf3
00814b1c g     O .rwdata	0000016c __global_locale
00811ea4 g     F .text	00000084 alt_load
0080f660 g     F .text	00000078 fputwc
0080ff74 g     F .text	000000bc raise
0080a9c0 g     F .text	00000004 __sinit_lock_acquire
0080c30c g     F .text	0000015c __multadd
0080c2e8 g     F .text	00000024 _Bfree



Disassembly of section .entry:

00800000 <__reset>:
#if NIOS2_ICACHE_SIZE > 0 && defined(ALT_ALLOW_CODE_AT_RESET) && (!defined(ALT_SIM_OPTIMIZE) || defined(NIOS2_ECC_PRESENT))
    /* Assume the instruction cache size is always a power of two. */
#if NIOS2_ICACHE_SIZE > 0x8000
    movhi r2, %hi(NIOS2_ICACHE_SIZE)
#else
    movui r2, NIOS2_ICACHE_SIZE
  800000:	00840014 	movui	r2,4096
#endif

0:
    initi r2
  800004:	1001483a 	initi	r2
    addi r2, r2, -NIOS2_ICACHE_LINE_SIZE
  800008:	10bff804 	addi	r2,r2,-32
    bgt r2, zero, 0b
  80000c:	00bffd16 	blt	zero,r2,800004 <__reset+0x4>
 * Jump to the _start entry point in the .text section if reset code
 * is allowed or if optimizing for RTL simulation.
 */
#if defined(ALT_ALLOW_CODE_AT_RESET) || defined(ALT_SIM_OPTIMIZE)
    /* Jump to the _start entry point in the .text section. */
    movhi r1, %hi(_start)
  800010:	00402034 	movhi	at,128
    ori r1, r1, %lo(_start)
  800014:	08408e14 	ori	at,at,568
    jmp r1
  800018:	0800683a 	jmp	at
  80001c:	00000000 	call	0 <__alt_mem_sdram-0x800000>

Disassembly of section .exceptions:

00800020 <alt_exception>:

#else /* ALT_EXCEPTION_STACK disabled */
        /* 
         * Reserve space on normal stack for registers about to be pushed.
         */
        addi  sp, sp, -76
  800020:	deffed04 	addi	sp,sp,-76
         * documentation for details).
         *
         * Leave a gap in the stack frame at 4(sp) for the muldiv handler to
         * store zero into.
         */
        stw   ra,  0(sp)
  800024:	dfc00015 	stw	ra,0(sp)
        stw   r1,   8(sp)
  800028:	d8400215 	stw	at,8(sp)
        stw   r2,  12(sp)
  80002c:	d8800315 	stw	r2,12(sp)
        stw   r3,  16(sp)
  800030:	d8c00415 	stw	r3,16(sp)
        stw   r4,  20(sp)
  800034:	d9000515 	stw	r4,20(sp)
        stw   r5,  24(sp)
  800038:	d9400615 	stw	r5,24(sp)
        stw   r6,  28(sp)
  80003c:	d9800715 	stw	r6,28(sp)
        stw   r7,  32(sp)
  800040:	d9c00815 	stw	r7,32(sp)
        rdctl r5, estatus   /* Read early to avoid usage stall */
  800044:	000b307a 	rdctl	r5,estatus
        stw   r8,  36(sp)
  800048:	da000915 	stw	r8,36(sp)
        stw   r9,  40(sp)
  80004c:	da400a15 	stw	r9,40(sp)
        stw   r10, 44(sp)
  800050:	da800b15 	stw	r10,44(sp)
        stw   r11, 48(sp)
  800054:	dac00c15 	stw	r11,48(sp)
        stw   r12, 52(sp)
  800058:	db000d15 	stw	r12,52(sp)
        stw   r13, 56(sp)
  80005c:	db400e15 	stw	r13,56(sp)
        stw   r14, 60(sp)
  800060:	db800f15 	stw	r14,60(sp)
        stw   r15, 64(sp)
  800064:	dbc01015 	stw	r15,64(sp)
        /*
         * ea-4 contains the address of the instruction being executed
         * when the exception occured. For interrupt exceptions, we will
         * will be re-issue the isntruction. Store it in 72(sp)
         */
        stw   r5,  68(sp)  /* estatus */
  800068:	d9401115 	stw	r5,68(sp)
        addi  r15, ea, -4  /* instruction that caused exception */
  80006c:	ebffff04 	addi	r15,ea,-4
        stw   r15,  72(sp)
  800070:	dbc01215 	stw	r15,72(sp)
#else
        /*
         * Test to see if the exception was a software exception or caused 
         * by an external interrupt, and vector accordingly.
         */
        rdctl r4, ipending
  800074:	0009313a 	rdctl	r4,ipending
        andi  r2, r5, 1
  800078:	2880004c 	andi	r2,r5,1
        beq   r2, zero, .Lnot_irq
  80007c:	10000326 	beq	r2,zero,80008c <alt_exception+0x6c>
        beq   r4, zero, .Lnot_irq
  800080:	20000226 	beq	r4,zero,80008c <alt_exception+0x6c>
        /*
         * Now that all necessary registers have been preserved, call 
         * alt_irq_handler() to process the interrupts.
         */

        call alt_irq_handler
  800084:	08000fc0 	call	8000fc <alt_irq_handler>

        .section .exceptions.irqreturn, "xa"

        br    .Lexception_exit
  800088:	00000706 	br	8000a8 <alt_exception+0x88>
         * upon completion, so we write ea (address of instruction *after*
         * the one where the exception occured) into 72(sp). The actual
         * instruction that caused the exception is written in r2, which these
         * handlers will utilize.
         */
        stw ea, 72(sp) /* EA is PC+4 so will skip over instruction causing exception */
  80008c:	df401215 	stw	ea,72(sp)
.Lunknown_16bit:
        addi.n r4, r4, 2 /* Need PC+2 to skip over instruction causing exception */
        stw r4, 72(sp)

#else /* CDX is not Enabled and all instructions are 32bits */
        ldw r2, -4(ea) /* Instruction value that caused exception */
  800090:	e8bfff17 	ldw	r2,-4(ea)
         * debugger is present) or go into an infinite loop since the
         * handling behavior is undefined; in that case we will not return here.
         */

        /* Load exception-causing address as first argument (r4) */
        addi   r4, ea, -4
  800094:	e93fff04 	addi	r4,ea,-4

        /* Call the instruction-exception entry */
        call   alt_instruction_exception_entry
  800098:	08001c40 	call	8001c4 <alt_instruction_exception_entry>
         * instruction
         *
         * Return code was 0: Skip. The instruction after the exception is
         * already stored in 72(sp).
         */
        bne   r2, r0, .Lexception_exit
  80009c:	1000021e 	bne	r2,zero,8000a8 <alt_exception+0x88>

        /*
         * Otherwise, modify 72(sp) to re-issue the instruction that caused the
         * exception.
         */
        addi  r15, ea, -4  /* instruction that caused exception */
  8000a0:	ebffff04 	addi	r15,ea,-4
        stw   r15,  72(sp)
  8000a4:	dbc01215 	stw	r15,72(sp)
        /* 
         * Restore the saved registers, so that all general purpose registers 
         * have been restored to their state at the time the interrupt occured.
         */

        ldw   r5,  68(sp)
  8000a8:	d9401117 	ldw	r5,68(sp)
        ldw   ea,  72(sp)  /* This becomes the PC once eret is executed */
  8000ac:	df401217 	ldw	ea,72(sp)
        ldw   ra,   0(sp)
  8000b0:	dfc00017 	ldw	ra,0(sp)

        wrctl estatus, r5
  8000b4:	2801707a 	wrctl	estatus,r5

        ldw   r1,   8(sp)
  8000b8:	d8400217 	ldw	at,8(sp)
        ldw   r2,  12(sp)
  8000bc:	d8800317 	ldw	r2,12(sp)
        ldw   r3,  16(sp)
  8000c0:	d8c00417 	ldw	r3,16(sp)
        ldw   r4,  20(sp)
  8000c4:	d9000517 	ldw	r4,20(sp)
        ldw   r5,  24(sp)
  8000c8:	d9400617 	ldw	r5,24(sp)
        ldw   r6,  28(sp)
  8000cc:	d9800717 	ldw	r6,28(sp)
        ldw   r7,  32(sp)
  8000d0:	d9c00817 	ldw	r7,32(sp)

#if defined(ALT_EXCEPTION_STACK) && defined(ALT_STACK_CHECK)
        ldw   et, %gprel(alt_exception_old_stack_limit)(gp)
#endif

        ldw   r8,  36(sp)
  8000d4:	da000917 	ldw	r8,36(sp)
        ldw   r9,  40(sp)
  8000d8:	da400a17 	ldw	r9,40(sp)
        ldw   r10, 44(sp)
  8000dc:	da800b17 	ldw	r10,44(sp)
        ldw   r11, 48(sp)
  8000e0:	dac00c17 	ldw	r11,48(sp)
        ldw   r12, 52(sp)
  8000e4:	db000d17 	ldw	r12,52(sp)
        ldw   r13, 56(sp)
  8000e8:	db400e17 	ldw	r13,56(sp)
        ldw   r14, 60(sp)
  8000ec:	db800f17 	ldw	r14,60(sp)
        ldw   r15, 64(sp)
  8000f0:	dbc01017 	ldw	r15,64(sp)
        stw   et, %gprel(alt_stack_limit_value)(gp)
        stw   zero, %gprel(alt_exception_old_stack_limit)(gp)
#endif /* ALT_STACK_CHECK */
        ldw   sp,  76(sp)
#else /* ALT_EXCEPTION_STACK disabled */
        addi  sp, sp, 76
  8000f4:	dec01304 	addi	sp,sp,76

        /*
         * Return to the interrupted instruction.
         */

        eret
  8000f8:	ef80083a 	eret

008000fc <alt_irq_handler>:
 * instruction is present if the macro ALT_CI_INTERRUPT_VECTOR defined.
 */

void alt_irq_handler (void) __attribute__ ((section (".exceptions")));
void alt_irq_handler (void)
{
  8000fc:	defff904 	addi	sp,sp,-28
  800100:	dfc00615 	stw	ra,24(sp)
  800104:	df000515 	stw	fp,20(sp)
  800108:	df000504 	addi	fp,sp,20
  
  /*
   * Notify the operating system that we are at interrupt level.
   */ 
  
  ALT_OS_INT_ENTER();
  80010c:	0001883a 	nop
#ifndef NIOS2_EIC_PRESENT
static ALT_INLINE alt_u32 ALT_ALWAYS_INLINE alt_irq_pending (void)
{
  alt_u32 active;

  NIOS2_READ_IPENDING (active);
  800110:	0005313a 	rdctl	r2,ipending
  800114:	e0bffc15 	stw	r2,-16(fp)

  return active;
  800118:	e0bffc17 	ldw	r2,-16(fp)
   * Consider the case where the high priority interupt is asserted during
   * the interrupt entry sequence for a lower priority interrupt to see why
   * this is the case.
   */

  active = alt_irq_pending ();
  80011c:	e0bfff15 	stw	r2,-4(fp)

  do
  {
    i = 0;
  800120:	e03ffd15 	stw	zero,-12(fp)
    mask = 1;
  800124:	00800044 	movi	r2,1
  800128:	e0bffe15 	stw	r2,-8(fp)
     * called to clear the interrupt condition.
     */

    do
    {
      if (active & mask)
  80012c:	e0ffff17 	ldw	r3,-4(fp)
  800130:	e0bffe17 	ldw	r2,-8(fp)
  800134:	1884703a 	and	r2,r3,r2
  800138:	10001126 	beq	r2,zero,800180 <alt_irq_handler+0x84>
      { 
#ifdef ALT_ENHANCED_INTERRUPT_API_PRESENT
        alt_irq[i].handler(alt_irq[i].context); 
  80013c:	e0bffd17 	ldw	r2,-12(fp)
  800140:	100690fa 	slli	r3,r2,3
  800144:	00802074 	movhi	r2,129
  800148:	1885883a 	add	r2,r3,r2
  80014c:	10d6a417 	ldw	r3,23184(r2)
  800150:	e0bffd17 	ldw	r2,-12(fp)
  800154:	100890fa 	slli	r4,r2,3
  800158:	00802074 	movhi	r2,129
  80015c:	2085883a 	add	r2,r4,r2
  800160:	1096a517 	ldw	r2,23188(r2)
  800164:	1009883a 	mov	r4,r2
  800168:	183ee83a 	callr	r3
#else
        alt_irq[i].handler(alt_irq[i].context, i); 
#endif
        break;
  80016c:	0001883a 	nop
  NIOS2_READ_IPENDING (active);
  800170:	0005313a 	rdctl	r2,ipending
  800174:	e0bffb15 	stw	r2,-20(fp)
  return active;
  800178:	e0bffb17 	ldw	r2,-20(fp)
  80017c:	00000706 	br	80019c <alt_irq_handler+0xa0>
      }
      mask <<= 1;
  800180:	e0bffe17 	ldw	r2,-8(fp)
  800184:	1085883a 	add	r2,r2,r2
  800188:	e0bffe15 	stw	r2,-8(fp)
      i++;
  80018c:	e0bffd17 	ldw	r2,-12(fp)
  800190:	10800044 	addi	r2,r2,1
  800194:	e0bffd15 	stw	r2,-12(fp)
      if (active & mask)
  800198:	003fe406 	br	80012c <alt_irq_handler+0x30>

    } while (1);

    active = alt_irq_pending ();
  80019c:	e0bfff15 	stw	r2,-4(fp)
    
  } while (active);
  8001a0:	e0bfff17 	ldw	r2,-4(fp)
  8001a4:	103fde1e 	bne	r2,zero,800120 <alt_irq_handler+0x24>

  /*
   * Notify the operating system that interrupt processing is complete.
   */ 

  ALT_OS_INT_EXIT();
  8001a8:	0001883a 	nop
}
  8001ac:	0001883a 	nop
  8001b0:	e037883a 	mov	sp,fp
  8001b4:	dfc00117 	ldw	ra,4(sp)
  8001b8:	df000017 	ldw	fp,0(sp)
  8001bc:	dec00204 	addi	sp,sp,8
  8001c0:	f800283a 	ret

008001c4 <alt_instruction_exception_entry>:
 * that handler if it has been registered. Absent a handler, it will
 * break break or hang as discussed below.
 */
int 
alt_instruction_exception_entry (alt_u32 exception_pc)
{
  8001c4:	defffb04 	addi	sp,sp,-20
  8001c8:	dfc00415 	stw	ra,16(sp)
  8001cc:	df000315 	stw	fp,12(sp)
  8001d0:	df000304 	addi	fp,sp,12
  8001d4:	e13ffd15 	stw	r4,-12(fp)
 * NIOS2_EXCEPTION_CAUSE_NOT_PRESENT. Your handling routine should
 * check the validity of the cause argument before proceeding.
 */
#ifdef NIOS2_HAS_EXTRA_EXCEPTION_INFO
  /* Get exception cause & "badaddr" */
  NIOS2_READ_EXCEPTION(cause);
  8001d8:	000531fa 	rdctl	r2,exception
  8001dc:	e0bfff15 	stw	r2,-4(fp)
  cause = ( (cause & NIOS2_EXCEPTION_REG_CAUSE_MASK) >>
  8001e0:	e0bfff17 	ldw	r2,-4(fp)
  8001e4:	1004d0ba 	srli	r2,r2,2
  8001e8:	108007cc 	andi	r2,r2,31
  8001ec:	e0bfff15 	stw	r2,-4(fp)
              NIOS2_EXCEPTION_REG_CAUSE_OFST );

  NIOS2_READ_BADADDR(badaddr);
  8001f0:	0005333a 	rdctl	r2,badaddr
  8001f4:	e0bffe15 	stw	r2,-8(fp)
#else
  cause = NIOS2_EXCEPTION_CAUSE_NOT_PRESENT;
  badaddr = 0;
#endif /* NIOS2_HAS_EXTRA_EXCEPTION_INFO */

  if(alt_instruction_exception_handler) {
  8001f8:	d0a30217 	ldw	r2,-29688(gp)
  8001fc:	10000726 	beq	r2,zero,80021c <alt_instruction_exception_entry+0x58>
     * Call handler. Its return value indicates whether the exception-causing
     * instruction should be re-issued. The code that called us,
     * alt_eceptions_entry.S, will look at this value and adjust the ea
     * register as necessary
     */
    return alt_instruction_exception_handler(cause, exception_pc, badaddr);
  800200:	d0a30217 	ldw	r2,-29688(gp)
  800204:	e0ffff17 	ldw	r3,-4(fp)
  800208:	e1bffe17 	ldw	r6,-8(fp)
  80020c:	e17ffd17 	ldw	r5,-12(fp)
  800210:	1809883a 	mov	r4,r3
  800214:	103ee83a 	callr	r2
  800218:	00000206 	br	800224 <alt_instruction_exception_entry+0x60>
   *    (a peripheral which negates its interrupt output before its
   *    interrupt handler has been executed will cause spurious interrupts)
   */
  else {
#ifdef NIOS2_HAS_DEBUG_STUB
    NIOS2_BREAK();
  80021c:	003da03a 	break	0
      ;
#endif /* NIOS2_HAS_DEBUG_STUB */
  }

  /* We should not get here. Remove compiler warning. */
  return NIOS2_EXCEPTION_RETURN_REISSUE_INST;
  800220:	0005883a 	mov	r2,zero
}
  800224:	e037883a 	mov	sp,fp
  800228:	dfc00117 	ldw	ra,4(sp)
  80022c:	df000017 	ldw	fp,0(sp)
  800230:	dec00204 	addi	sp,sp,8
  800234:	f800283a 	ret

Disassembly of section .text:

00800238 <_start>:

    /* Assume the data cache size is always a power of two. */
#if NIOS2_DCACHE_SIZE > 0x8000
    movhi r2, %hi(NIOS2_DCACHE_SIZE)
#else
    movui r2, NIOS2_DCACHE_SIZE
  800238:	00820014 	movui	r2,2048
#endif

0:
    initd 0(r2)
  80023c:	10000033 	initd	0(r2)
#ifdef NIOS2_ECC_PRESENT
    addi r2, r2, -4
#else
    addi r2, r2, -NIOS2_DCACHE_LINE_SIZE
  800240:	10bff804 	addi	r2,r2,-32
#endif
    bgt r2, zero, 0b
  800244:	00bffd16 	blt	zero,r2,80023c <_start+0x4>

    /*
     * Now that the caches are initialized, set up the stack pointer and global pointer.
     * The values provided by the linker are assumed to be correctly aligned.
     */
    movhi sp, %hi(__alt_stack_pointer)
  800248:	06c04034 	movhi	sp,256
    ori sp, sp, %lo(__alt_stack_pointer)
  80024c:	dec00014 	ori	sp,sp,0
    movhi gp, %hi(_gp)
  800250:	06802074 	movhi	gp,129
    ori gp, gp, %lo(_gp)
  800254:	d6b39714 	ori	gp,gp,52828
 */
#ifndef ALT_SIM_OPTIMIZE
    /* Log that the BSS is about to be cleared. */
    ALT_LOG_PUTS(alt_log_msg_bss)

    movhi r2, %hi(__bss_start)
  800258:	00802074 	movhi	r2,129
    ori r2, r2, %lo(__bss_start)
  80025c:	10968e14 	ori	r2,r2,23096

    movhi r3, %hi(__bss_end)
  800260:	00c02074 	movhi	r3,129
    ori r3, r3, %lo(__bss_end)
  800264:	18d6e414 	ori	r3,r3,23440

    beq r2, r3, 1f
  800268:	10c00326 	beq	r2,r3,800278 <_start+0x40>

0:
    stw zero, (r2)
  80026c:	10000015 	stw	zero,0(r2)
    addi r2, r2, 4
  800270:	10800104 	addi	r2,r2,4
    bltu r2, r3, 0b
  800274:	10fffd36 	bltu	r2,r3,80026c <_start+0x34>
     * section aren't defined until alt_load() has been called).
     */
    mov   et, zero
#endif

    call alt_load
  800278:	0811ea40 	call	811ea4 <alt_load>

    /* Log that alt_main is about to be called. */
    ALT_LOG_PUTS(alt_log_msg_alt_main)

    /* Call the C entry point. It should never return. */
    call alt_main
  80027c:	08120440 	call	812044 <alt_main>

00800280 <alt_after_alt_main>:

    /* Wait in infinite loop in case alt_main does return. */
alt_after_alt_main:
    br alt_after_alt_main
  800280:	003fff06 	br	800280 <alt_after_alt_main>

00800284 <generateVector>:
//#define RANDSEED 334



// Generates the vector x and stores it in the memory
void generateVector(float x[N]){
  800284:	defffb04 	addi	sp,sp,-20
  800288:	dfc00415 	stw	ra,16(sp)
  80028c:	df000315 	stw	fp,12(sp)
  800290:	dc000215 	stw	r16,8(sp)
  800294:	df000304 	addi	fp,sp,12
  800298:	e13ffd15 	stw	r4,-12(fp)
	int i;
	x[0] = 0;
  80029c:	e0bffd17 	ldw	r2,-12(fp)
  8002a0:	10000015 	stw	zero,0(r2)
	for(i=1;i<N;i++){
  8002a4:	00800044 	movi	r2,1
  8002a8:	e0bffe15 	stw	r2,-8(fp)
  8002ac:	00001406 	br	800300 <generateVector+0x7c>
		x[i] = x[i-1] + step;
  8002b0:	e0fffe17 	ldw	r3,-8(fp)
  8002b4:	00900034 	movhi	r2,16384
  8002b8:	10bfffc4 	addi	r2,r2,-1
  8002bc:	1885883a 	add	r2,r3,r2
  8002c0:	100490ba 	slli	r2,r2,2
  8002c4:	e0fffd17 	ldw	r3,-12(fp)
  8002c8:	1885883a 	add	r2,r3,r2
  8002cc:	11000017 	ldw	r4,0(r2)
  8002d0:	e0bffe17 	ldw	r2,-8(fp)
  8002d4:	100490ba 	slli	r2,r2,2
  8002d8:	e0fffd17 	ldw	r3,-12(fp)
  8002dc:	18a1883a 	add	r16,r3,r2
  8002e0:	014ea034 	movhi	r5,14976
  8002e4:	08027f40 	call	8027f4 <__addsf3>
  8002e8:	1007883a 	mov	r3,r2
  8002ec:	1805883a 	mov	r2,r3
  8002f0:	80800015 	stw	r2,0(r16)
	for(i=1;i<N;i++){
  8002f4:	e0bffe17 	ldw	r2,-8(fp)
  8002f8:	10800044 	addi	r2,r2,1
  8002fc:	e0bffe15 	stw	r2,-8(fp)
  800300:	e0fffe17 	ldw	r3,-8(fp)
  800304:	00800134 	movhi	r2,4
  800308:	10bf0004 	addi	r2,r2,-1024
  80030c:	10ffe80e 	bge	r2,r3,8002b0 <generateVector+0x2c>
	}
}
  800310:	0001883a 	nop
  800314:	0001883a 	nop
  800318:	e6ffff04 	addi	sp,fp,-4
  80031c:	dfc00217 	ldw	ra,8(sp)
  800320:	df000117 	ldw	fp,4(sp)
  800324:	dc000017 	ldw	r16,0(sp)
  800328:	dec00304 	addi	sp,sp,12
  80032c:	f800283a 	ret

00800330 <sumVector>:
//	{
//		x[i] = ((float) rand() / (float) RAND_MAX) * MAXVAL;
//	}
//}

float sumVector(float x[], int M){
  800330:	defff404 	addi	sp,sp,-48
  800334:	dfc00b15 	stw	ra,44(sp)
  800338:	df000a15 	stw	fp,40(sp)
  80033c:	dd400915 	stw	r21,36(sp)
  800340:	dd000815 	stw	r20,32(sp)
  800344:	dcc00715 	stw	r19,28(sp)
  800348:	dc800615 	stw	r18,24(sp)
  80034c:	dc400515 	stw	r17,20(sp)
  800350:	dc000415 	stw	r16,16(sp)
  800354:	df000a04 	addi	fp,sp,40
  800358:	e13ff715 	stw	r4,-36(fp)
  80035c:	e17ff615 	stw	r5,-40(fp)
	//YOUR CODE GOES HERE
	float y=0;
  800360:	e03ff915 	stw	zero,-28(fp)
	for(int i=0;i<M;i++){
  800364:	e03ff815 	stw	zero,-32(fp)
  800368:	00006306 	br	8004f8 <sumVector+0x1c8>
		y += 0.5*x[i] + x[i]*x[i]*cos((x[i]-128)/128);
  80036c:	e13ff917 	ldw	r4,-28(fp)
  800370:	08055680 	call	805568 <__extendsfdf2>
  800374:	1021883a 	mov	r16,r2
  800378:	1823883a 	mov	r17,r3
  80037c:	e0bff817 	ldw	r2,-32(fp)
  800380:	100490ba 	slli	r2,r2,2
  800384:	e0fff717 	ldw	r3,-36(fp)
  800388:	1885883a 	add	r2,r3,r2
  80038c:	10c00017 	ldw	r3,0(r2)
  800390:	1809883a 	mov	r4,r3
  800394:	08055680 	call	805568 <__extendsfdf2>
  800398:	1011883a 	mov	r8,r2
  80039c:	1813883a 	mov	r9,r3
  8003a0:	000d883a 	mov	r6,zero
  8003a4:	01cff834 	movhi	r7,16352
  8003a8:	4009883a 	mov	r4,r8
  8003ac:	480b883a 	mov	r5,r9
  8003b0:	08043400 	call	804340 <__muldf3>
  8003b4:	1009883a 	mov	r4,r2
  8003b8:	180b883a 	mov	r5,r3
  8003bc:	2025883a 	mov	r18,r4
  8003c0:	2827883a 	mov	r19,r5
  8003c4:	e0bff817 	ldw	r2,-32(fp)
  8003c8:	100490ba 	slli	r2,r2,2
  8003cc:	e0fff717 	ldw	r3,-36(fp)
  8003d0:	1885883a 	add	r2,r3,r2
  8003d4:	11000017 	ldw	r4,0(r2)
  8003d8:	e0bff817 	ldw	r2,-32(fp)
  8003dc:	100490ba 	slli	r2,r2,2
  8003e0:	e0fff717 	ldw	r3,-36(fp)
  8003e4:	1885883a 	add	r2,r3,r2
  8003e8:	10c00017 	ldw	r3,0(r2)
  8003ec:	180b883a 	mov	r5,r3
  8003f0:	08030540 	call	803054 <__mulsf3>
  8003f4:	1007883a 	mov	r3,r2
  8003f8:	1805883a 	mov	r2,r3
  8003fc:	1009883a 	mov	r4,r2
  800400:	08055680 	call	805568 <__extendsfdf2>
  800404:	1029883a 	mov	r20,r2
  800408:	182b883a 	mov	r21,r3
  80040c:	e0bff817 	ldw	r2,-32(fp)
  800410:	100490ba 	slli	r2,r2,2
  800414:	e0fff717 	ldw	r3,-36(fp)
  800418:	1885883a 	add	r2,r3,r2
  80041c:	10c00017 	ldw	r3,0(r2)
  800420:	0150c034 	movhi	r5,17152
  800424:	1809883a 	mov	r4,r3
  800428:	08034540 	call	803454 <__subsf3>
  80042c:	1007883a 	mov	r3,r2
  800430:	1805883a 	mov	r2,r3
  800434:	0150c034 	movhi	r5,17152
  800438:	1009883a 	mov	r4,r2
  80043c:	0802c600 	call	802c60 <__divsf3>
  800440:	1007883a 	mov	r3,r2
  800444:	1805883a 	mov	r2,r3
  800448:	1009883a 	mov	r4,r2
  80044c:	08055680 	call	805568 <__extendsfdf2>
  800450:	100d883a 	mov	r6,r2
  800454:	180f883a 	mov	r7,r3
  800458:	3009883a 	mov	r4,r6
  80045c:	380b883a 	mov	r5,r7
  800460:	08006540 	call	800654 <cos>
  800464:	1009883a 	mov	r4,r2
  800468:	180b883a 	mov	r5,r3
  80046c:	200d883a 	mov	r6,r4
  800470:	280f883a 	mov	r7,r5
  800474:	a009883a 	mov	r4,r20
  800478:	a80b883a 	mov	r5,r21
  80047c:	08043400 	call	804340 <__muldf3>
  800480:	1009883a 	mov	r4,r2
  800484:	180b883a 	mov	r5,r3
  800488:	2005883a 	mov	r2,r4
  80048c:	2807883a 	mov	r3,r5
  800490:	100d883a 	mov	r6,r2
  800494:	180f883a 	mov	r7,r3
  800498:	9009883a 	mov	r4,r18
  80049c:	980b883a 	mov	r5,r19
  8004a0:	08038e80 	call	8038e8 <__adddf3>
  8004a4:	1009883a 	mov	r4,r2
  8004a8:	180b883a 	mov	r5,r3
  8004ac:	2005883a 	mov	r2,r4
  8004b0:	2807883a 	mov	r3,r5
  8004b4:	100d883a 	mov	r6,r2
  8004b8:	180f883a 	mov	r7,r3
  8004bc:	8009883a 	mov	r4,r16
  8004c0:	880b883a 	mov	r5,r17
  8004c4:	08038e80 	call	8038e8 <__adddf3>
  8004c8:	1009883a 	mov	r4,r2
  8004cc:	180b883a 	mov	r5,r3
  8004d0:	2005883a 	mov	r2,r4
  8004d4:	2807883a 	mov	r3,r5
  8004d8:	1009883a 	mov	r4,r2
  8004dc:	180b883a 	mov	r5,r3
  8004e0:	08056640 	call	805664 <__truncdfsf2>
  8004e4:	1007883a 	mov	r3,r2
  8004e8:	e0fff915 	stw	r3,-28(fp)
	for(int i=0;i<M;i++){
  8004ec:	e0bff817 	ldw	r2,-32(fp)
  8004f0:	10800044 	addi	r2,r2,1
  8004f4:	e0bff815 	stw	r2,-32(fp)
  8004f8:	e0fff817 	ldw	r3,-32(fp)
  8004fc:	e0bff617 	ldw	r2,-40(fp)
  800500:	18bf9a16 	blt	r3,r2,80036c <sumVector+0x3c>
	}
	return y;
  800504:	e0bff917 	ldw	r2,-28(fp)
  800508:	1007883a 	mov	r3,r2
}
  80050c:	1805883a 	mov	r2,r3
  800510:	e6fffa04 	addi	sp,fp,-24
  800514:	dfc00717 	ldw	ra,28(sp)
  800518:	df000617 	ldw	fp,24(sp)
  80051c:	dd400517 	ldw	r21,20(sp)
  800520:	dd000417 	ldw	r20,16(sp)
  800524:	dcc00317 	ldw	r19,12(sp)
  800528:	dc800217 	ldw	r18,8(sp)
  80052c:	dc400117 	ldw	r17,4(sp)
  800530:	dc000017 	ldw	r16,0(sp)
  800534:	dec00804 	addi	sp,sp,32
  800538:	f800283a 	ret

0080053c <main>:
int main()
{
  80053c:	defffe04 	addi	sp,sp,-8
  800540:	dfc00115 	stw	ra,4(sp)
  800544:	df000015 	stw	fp,0(sp)
  800548:	d839883a 	mov	fp,sp
  80054c:	023ffc34 	movhi	r8,65520
  800550:	4203e304 	addi	r8,r8,3980
  800554:	da37883a 	add	sp,sp,r8
	printf("Task 4\n");
  800558:	01002074 	movhi	r4,129
  80055c:	210ea604 	addi	r4,r4,15000
  800560:	0805bcc0 	call	805bcc <puts>
	float x[N];

	//Returned result
	float y;

	generateVector(x);
  800564:	00bffc34 	movhi	r2,65520
  800568:	1083fc04 	addi	r2,r2,4080
  80056c:	e085883a 	add	r2,fp,r2
  800570:	1009883a 	mov	r4,r2
  800574:	08002840 	call	800284 <generateVector>
	//The following is used for timing
	char buf[100];
	clock_t exec_t1, exec_t2;
	char *gcvt(double number, int ndigit, char *buf);

	exec_t1 = times(NULL); // get system time before starting the process
  800578:	0009883a 	mov	r4,zero
  80057c:	08123ec0 	call	8123ec <times>
  800580:	e0bfff15 	stw	r2,-4(fp)

	// The code that you want to time goes here
	y = sumVector(x,N);
  800584:	00bffc34 	movhi	r2,65520
  800588:	1083fc04 	addi	r2,r2,4080
  80058c:	e085883a 	add	r2,fp,r2
  800590:	01400134 	movhi	r5,4
  800594:	297f0044 	addi	r5,r5,-1023
  800598:	1009883a 	mov	r4,r2
  80059c:	08003300 	call	800330 <sumVector>
  8005a0:	e0bffe15 	stw	r2,-8(fp)

	// till here
	exec_t2 = times(NULL); // get system time after finishing the process
  8005a4:	0009883a 	mov	r4,zero
  8005a8:	08123ec0 	call	8123ec <times>
  8005ac:	e0bffd15 	stw	r2,-12(fp)

	printf("Result: %f\n", y);
  8005b0:	e13ffe17 	ldw	r4,-8(fp)
  8005b4:	08055680 	call	805568 <__extendsfdf2>
  8005b8:	100d883a 	mov	r6,r2
  8005bc:	180f883a 	mov	r7,r3
  8005c0:	300b883a 	mov	r5,r6
  8005c4:	380d883a 	mov	r6,r7
  8005c8:	01002074 	movhi	r4,129
  8005cc:	210ea804 	addi	r4,r4,15008
  8005d0:	0805ac80 	call	805ac8 <printf>
	gcvt((exec_t2 - exec_t1), 10 ,buf);
  8005d4:	e0fffd17 	ldw	r3,-12(fp)
  8005d8:	e0bfff17 	ldw	r2,-4(fp)
  8005dc:	1885c83a 	sub	r2,r3,r2
  8005e0:	1009883a 	mov	r4,r2
  8005e4:	08054d80 	call	8054d8 <__floatunsidf>
  8005e8:	1011883a 	mov	r8,r2
  8005ec:	1813883a 	mov	r9,r3
  8005f0:	00bffc34 	movhi	r2,65520
  8005f4:	1083e304 	addi	r2,r2,3980
  8005f8:	e085883a 	add	r2,fp,r2
  8005fc:	100f883a 	mov	r7,r2
  800600:	01800284 	movi	r6,10
  800604:	4009883a 	mov	r4,r8
  800608:	480b883a 	mov	r5,r9
  80060c:	08058cc0 	call	8058cc <gcvt>

	alt_putstr("proc time = "); alt_putstr(buf); alt_putstr(" ticks \n");
  800610:	01002074 	movhi	r4,129
  800614:	210eab04 	addi	r4,r4,15020
  800618:	08121080 	call	812108 <alt_putstr>
  80061c:	00bffc34 	movhi	r2,65520
  800620:	1083e304 	addi	r2,r2,3980
  800624:	e085883a 	add	r2,fp,r2
  800628:	1009883a 	mov	r4,r2
  80062c:	08121080 	call	812108 <alt_putstr>
  800630:	01002074 	movhi	r4,129
  800634:	210eaf04 	addi	r4,r4,15036
  800638:	08121080 	call	812108 <alt_putstr>
	return 0;
  80063c:	0005883a 	mov	r2,zero
}
  800640:	e037883a 	mov	sp,fp
  800644:	dfc00117 	ldw	ra,4(sp)
  800648:	df000017 	ldw	fp,0(sp)
  80064c:	dec00204 	addi	sp,sp,8
  800650:	f800283a 	ret

00800654 <cos>:
  800654:	00a00034 	movhi	r2,32768
  800658:	10bfffc4 	addi	r2,r2,-1
  80065c:	00cffa74 	movhi	r3,16361
  800660:	2884703a 	and	r2,r5,r2
  800664:	18c87ec4 	addi	r3,r3,8699
  800668:	18801a0e 	bge	r3,r2,8006d4 <cos+0x80>
  80066c:	defffa04 	addi	sp,sp,-24
  800670:	dfc00515 	stw	ra,20(sp)
  800674:	00dffc34 	movhi	r3,32752
  800678:	10c00616 	blt	r2,r3,800694 <cos+0x40>
  80067c:	280f883a 	mov	r7,r5
  800680:	200d883a 	mov	r6,r4
  800684:	0804aec0 	call	804aec <__subdf3>
  800688:	dfc00517 	ldw	ra,20(sp)
  80068c:	dec00604 	addi	sp,sp,24
  800690:	f800283a 	ret
  800694:	d9800104 	addi	r6,sp,4
  800698:	08007040 	call	800704 <__ieee754_rem_pio2>
  80069c:	108000cc 	andi	r2,r2,3
  8006a0:	10c00060 	cmpeqi	r3,r2,1
  8006a4:	d9800317 	ldw	r6,12(sp)
  8006a8:	d9c00417 	ldw	r7,16(sp)
  8006ac:	d9000117 	ldw	r4,4(sp)
  8006b0:	d9400217 	ldw	r5,8(sp)
  8006b4:	18000a1e 	bne	r3,zero,8006e0 <cos+0x8c>
  8006b8:	10c000a0 	cmpeqi	r3,r2,2
  8006bc:	18000e1e 	bne	r3,zero,8006f8 <cos+0xa4>
  8006c0:	10000b26 	beq	r2,zero,8006f0 <cos+0x9c>
  8006c4:	00800044 	movi	r2,1
  8006c8:	d8800015 	stw	r2,0(sp)
  8006cc:	0801fd40 	call	801fd4 <__kernel_sin>
  8006d0:	003fed06 	br	800688 <cos+0x34>
  8006d4:	000d883a 	mov	r6,zero
  8006d8:	000f883a 	mov	r7,zero
  8006dc:	0800e501 	jmpi	800e50 <__kernel_cos>
  8006e0:	d8800015 	stw	r2,0(sp)
  8006e4:	0801fd40 	call	801fd4 <__kernel_sin>
  8006e8:	18e0003c 	xorhi	r3,r3,32768
  8006ec:	003fe606 	br	800688 <cos+0x34>
  8006f0:	0800e500 	call	800e50 <__kernel_cos>
  8006f4:	003fe406 	br	800688 <cos+0x34>
  8006f8:	0800e500 	call	800e50 <__kernel_cos>
  8006fc:	18e0003c 	xorhi	r3,r3,32768
  800700:	003fe106 	br	800688 <cos+0x34>

00800704 <__ieee754_rem_pio2>:
  800704:	deffea04 	addi	sp,sp,-88
  800708:	dc000c15 	stw	r16,48(sp)
  80070c:	04200034 	movhi	r16,32768
  800710:	843fffc4 	addi	r16,r16,-1
  800714:	008ffa74 	movhi	r2,16361
  800718:	dcc00f15 	stw	r19,60(sp)
  80071c:	dc800e15 	stw	r18,56(sp)
  800720:	dc400d15 	stw	r17,52(sp)
  800724:	dfc01515 	stw	ra,84(sp)
  800728:	df001415 	stw	fp,80(sp)
  80072c:	ddc01315 	stw	r23,76(sp)
  800730:	dd801215 	stw	r22,72(sp)
  800734:	dd401115 	stw	r21,68(sp)
  800738:	dd001015 	stw	r20,64(sp)
  80073c:	2c20703a 	and	r16,r5,r16
  800740:	10887ec4 	addi	r2,r2,8699
  800744:	2825883a 	mov	r18,r5
  800748:	2027883a 	mov	r19,r4
  80074c:	3023883a 	mov	r17,r6
  800750:	14008b0e 	bge	r2,r16,800980 <__ieee754_rem_pio2+0x27c>
  800754:	009000f4 	movhi	r2,16387
  800758:	10b65ec4 	addi	r2,r2,-9861
  80075c:	14002f16 	blt	r2,r16,80081c <__ieee754_rem_pio2+0x118>
  800760:	01cffe74 	movhi	r7,16377
  800764:	01951034 	movhi	r6,21568
  800768:	39c87ec4 	addi	r7,r7,8699
  80076c:	01417e0e 	bge	zero,r5,800d68 <__ieee754_rem_pio2+0x664>
  800770:	0804aec0 	call	804aec <__subdf3>
  800774:	018ffe74 	movhi	r6,16377
  800778:	31887ec4 	addi	r6,r6,8699
  80077c:	1009883a 	mov	r4,r2
  800780:	180b883a 	mov	r5,r3
  800784:	8180cb26 	beq	r16,r6,800ab4 <__ieee754_rem_pio2+0x3b0>
  800788:	018698b4 	movhi	r6,6754
  80078c:	01cf7474 	movhi	r7,15825
  800790:	3198cc44 	addi	r6,r6,25393
  800794:	39ed1844 	addi	r7,r7,-19359
  800798:	d8800315 	stw	r2,12(sp)
  80079c:	d8c00215 	stw	r3,8(sp)
  8007a0:	0804aec0 	call	804aec <__subdf3>
  8007a4:	d9000317 	ldw	r4,12(sp)
  8007a8:	d9400217 	ldw	r5,8(sp)
  8007ac:	100d883a 	mov	r6,r2
  8007b0:	180f883a 	mov	r7,r3
  8007b4:	88800015 	stw	r2,0(r17)
  8007b8:	88c00115 	stw	r3,4(r17)
  8007bc:	0804aec0 	call	804aec <__subdf3>
  8007c0:	018698b4 	movhi	r6,6754
  8007c4:	01cf7474 	movhi	r7,15825
  8007c8:	3198cc44 	addi	r6,r6,25393
  8007cc:	39ed1844 	addi	r7,r7,-19359
  8007d0:	1009883a 	mov	r4,r2
  8007d4:	180b883a 	mov	r5,r3
  8007d8:	0804aec0 	call	804aec <__subdf3>
  8007dc:	88800215 	stw	r2,8(r17)
  8007e0:	88c00315 	stw	r3,12(r17)
  8007e4:	05000044 	movi	r20,1
  8007e8:	a005883a 	mov	r2,r20
  8007ec:	dfc01517 	ldw	ra,84(sp)
  8007f0:	df001417 	ldw	fp,80(sp)
  8007f4:	ddc01317 	ldw	r23,76(sp)
  8007f8:	dd801217 	ldw	r22,72(sp)
  8007fc:	dd401117 	ldw	r21,68(sp)
  800800:	dd001017 	ldw	r20,64(sp)
  800804:	dcc00f17 	ldw	r19,60(sp)
  800808:	dc800e17 	ldw	r18,56(sp)
  80080c:	dc400d17 	ldw	r17,52(sp)
  800810:	dc000c17 	ldw	r16,48(sp)
  800814:	dec01604 	addi	sp,sp,88
  800818:	f800283a 	ret
  80081c:	00904e74 	movhi	r2,16697
  800820:	10887ec4 	addi	r2,r2,8699
  800824:	14005c16 	blt	r2,r16,800998 <__ieee754_rem_pio2+0x294>
  800828:	019b72b4 	movhi	r6,28106
  80082c:	01cff934 	movhi	r7,16356
  800830:	31b220c4 	addi	r6,r6,-14205
  800834:	39d7cc04 	addi	r7,r7,24368
  800838:	800b883a 	mov	r5,r16
  80083c:	08043400 	call	804340 <__muldf3>
  800840:	000d883a 	mov	r6,zero
  800844:	01cff834 	movhi	r7,16352
  800848:	1009883a 	mov	r4,r2
  80084c:	180b883a 	mov	r5,r3
  800850:	08038e80 	call	8038e8 <__adddf3>
  800854:	180b883a 	mov	r5,r3
  800858:	1009883a 	mov	r4,r2
  80085c:	08053a00 	call	8053a0 <__fixdfsi>
  800860:	1009883a 	mov	r4,r2
  800864:	1029883a 	mov	r20,r2
  800868:	08054200 	call	805420 <__floatsidf>
  80086c:	01cffe74 	movhi	r7,16377
  800870:	01951034 	movhi	r6,21568
  800874:	39c87ec4 	addi	r7,r7,8699
  800878:	1009883a 	mov	r4,r2
  80087c:	180b883a 	mov	r5,r3
  800880:	102d883a 	mov	r22,r2
  800884:	182b883a 	mov	r21,r3
  800888:	08043400 	call	804340 <__muldf3>
  80088c:	9809883a 	mov	r4,r19
  800890:	100d883a 	mov	r6,r2
  800894:	180f883a 	mov	r7,r3
  800898:	800b883a 	mov	r5,r16
  80089c:	0804aec0 	call	804aec <__subdf3>
  8008a0:	018698b4 	movhi	r6,6754
  8008a4:	01cf7474 	movhi	r7,15825
  8008a8:	3198cc44 	addi	r6,r6,25393
  8008ac:	39ed1844 	addi	r7,r7,-19359
  8008b0:	b009883a 	mov	r4,r22
  8008b4:	a80b883a 	mov	r5,r21
  8008b8:	1039883a 	mov	fp,r2
  8008bc:	d8c00215 	stw	r3,8(sp)
  8008c0:	08043400 	call	804340 <__muldf3>
  8008c4:	db000217 	ldw	r12,8(sp)
  8008c8:	e009883a 	mov	r4,fp
  8008cc:	100d883a 	mov	r6,r2
  8008d0:	600b883a 	mov	r5,r12
  8008d4:	180f883a 	mov	r7,r3
  8008d8:	db000315 	stw	r12,12(sp)
  8008dc:	102f883a 	mov	r23,r2
  8008e0:	1827883a 	mov	r19,r3
  8008e4:	df000415 	stw	fp,16(sp)
  8008e8:	0804aec0 	call	804aec <__subdf3>
  8008ec:	a1000808 	cmpgei	r4,r20,32
  8008f0:	db000317 	ldw	r12,12(sp)
  8008f4:	1017883a 	mov	r11,r2
  8008f8:	1815883a 	mov	r10,r3
  8008fc:	e01b883a 	mov	r13,fp
  800900:	2000851e 	bne	r4,zero,800b18 <__ieee754_rem_pio2+0x414>
  800904:	a00a90ba 	slli	r5,r20,2
  800908:	01002074 	movhi	r4,129
  80090c:	2909883a 	add	r4,r5,r4
  800910:	210eb117 	ldw	r4,15044(r4)
  800914:	24008026 	beq	r4,r16,800b18 <__ieee754_rem_pio2+0x414>
  800918:	88800015 	stw	r2,0(r17)
  80091c:	88c00115 	stw	r3,4(r17)
  800920:	580d883a 	mov	r6,r11
  800924:	500f883a 	mov	r7,r10
  800928:	6809883a 	mov	r4,r13
  80092c:	600b883a 	mov	r5,r12
  800930:	dac00315 	stw	r11,12(sp)
  800934:	da800215 	stw	r10,8(sp)
  800938:	0804aec0 	call	804aec <__subdf3>
  80093c:	b80d883a 	mov	r6,r23
  800940:	980f883a 	mov	r7,r19
  800944:	1009883a 	mov	r4,r2
  800948:	180b883a 	mov	r5,r3
  80094c:	0804aec0 	call	804aec <__subdf3>
  800950:	88800215 	stw	r2,8(r17)
  800954:	88c00315 	stw	r3,12(r17)
  800958:	903fa30e 	bge	r18,zero,8007e8 <__ieee754_rem_pio2+0xe4>
  80095c:	da800217 	ldw	r10,8(sp)
  800960:	dac00317 	ldw	r11,12(sp)
  800964:	18e0003c 	xorhi	r3,r3,32768
  800968:	52a0003c 	xorhi	r10,r10,32768
  80096c:	8ac00015 	stw	r11,0(r17)
  800970:	8a800115 	stw	r10,4(r17)
  800974:	88c00315 	stw	r3,12(r17)
  800978:	0529c83a 	sub	r20,zero,r20
  80097c:	003f9a06 	br	8007e8 <__ieee754_rem_pio2+0xe4>
  800980:	89000015 	stw	r4,0(r17)
  800984:	89400115 	stw	r5,4(r17)
  800988:	30000215 	stw	zero,8(r6)
  80098c:	30000315 	stw	zero,12(r6)
  800990:	0029883a 	mov	r20,zero
  800994:	003f9406 	br	8007e8 <__ieee754_rem_pio2+0xe4>
  800998:	009ffc34 	movhi	r2,32752
  80099c:	8080670e 	bge	r16,r2,800b3c <__ieee754_rem_pio2+0x438>
  8009a0:	8029d53a 	srai	r20,r16,20
  8009a4:	a53efa84 	addi	r20,r20,-1046
  8009a8:	a00a953a 	slli	r5,r20,20
  8009ac:	8161c83a 	sub	r16,r16,r5
  8009b0:	800b883a 	mov	r5,r16
  8009b4:	08053a00 	call	8053a0 <__fixdfsi>
  8009b8:	1009883a 	mov	r4,r2
  8009bc:	08054200 	call	805420 <__floatsidf>
  8009c0:	9809883a 	mov	r4,r19
  8009c4:	800b883a 	mov	r5,r16
  8009c8:	100d883a 	mov	r6,r2
  8009cc:	180f883a 	mov	r7,r3
  8009d0:	d8800615 	stw	r2,24(sp)
  8009d4:	d8c00715 	stw	r3,28(sp)
  8009d8:	0804aec0 	call	804aec <__subdf3>
  8009dc:	000d883a 	mov	r6,zero
  8009e0:	01d05c34 	movhi	r7,16752
  8009e4:	1009883a 	mov	r4,r2
  8009e8:	180b883a 	mov	r5,r3
  8009ec:	08043400 	call	804340 <__muldf3>
  8009f0:	180b883a 	mov	r5,r3
  8009f4:	1009883a 	mov	r4,r2
  8009f8:	1821883a 	mov	r16,r3
  8009fc:	1027883a 	mov	r19,r2
  800a00:	08053a00 	call	8053a0 <__fixdfsi>
  800a04:	1009883a 	mov	r4,r2
  800a08:	102b883a 	mov	r21,r2
  800a0c:	08054200 	call	805420 <__floatsidf>
  800a10:	100d883a 	mov	r6,r2
  800a14:	180f883a 	mov	r7,r3
  800a18:	9809883a 	mov	r4,r19
  800a1c:	800b883a 	mov	r5,r16
  800a20:	d8800815 	stw	r2,32(sp)
  800a24:	d8c00915 	stw	r3,36(sp)
  800a28:	0804aec0 	call	804aec <__subdf3>
  800a2c:	000d883a 	mov	r6,zero
  800a30:	01d05c34 	movhi	r7,16752
  800a34:	1009883a 	mov	r4,r2
  800a38:	180b883a 	mov	r5,r3
  800a3c:	08043400 	call	804340 <__muldf3>
  800a40:	1009883a 	mov	r4,r2
  800a44:	180b883a 	mov	r5,r3
  800a48:	000d883a 	mov	r6,zero
  800a4c:	000f883a 	mov	r7,zero
  800a50:	d8800a15 	stw	r2,40(sp)
  800a54:	d8c00b15 	stw	r3,44(sp)
  800a58:	08041d80 	call	8041d8 <__eqdf2>
  800a5c:	1000c01e 	bne	r2,zero,800d60 <__ieee754_rem_pio2+0x65c>
  800a60:	a800bd1e 	bne	r21,zero,800d58 <__ieee754_rem_pio2+0x654>
  800a64:	01c00044 	movi	r7,1
  800a68:	00802074 	movhi	r2,129
  800a6c:	108ed204 	addi	r2,r2,15176
  800a70:	d8800115 	stw	r2,4(sp)
  800a74:	00800084 	movi	r2,2
  800a78:	a00d883a 	mov	r6,r20
  800a7c:	d8800015 	stw	r2,0(sp)
  800a80:	880b883a 	mov	r5,r17
  800a84:	d9000604 	addi	r4,sp,24
  800a88:	08012fc0 	call	8012fc <__kernel_rem_pio2>
  800a8c:	1029883a 	mov	r20,r2
  800a90:	903f550e 	bge	r18,zero,8007e8 <__ieee754_rem_pio2+0xe4>
  800a94:	88c00117 	ldw	r3,4(r17)
  800a98:	88800317 	ldw	r2,12(r17)
  800a9c:	0529c83a 	sub	r20,zero,r20
  800aa0:	18e0003c 	xorhi	r3,r3,32768
  800aa4:	10a0003c 	xorhi	r2,r2,32768
  800aa8:	88c00115 	stw	r3,4(r17)
  800aac:	88800315 	stw	r2,12(r17)
  800ab0:	003f4d06 	br	8007e8 <__ieee754_rem_pio2+0xe4>
  800ab4:	01cf7474 	movhi	r7,15825
  800ab8:	01869834 	movhi	r6,6752
  800abc:	39ed1844 	addi	r7,r7,-19359
  800ac0:	0804aec0 	call	804aec <__subdf3>
  800ac4:	018b80f4 	movhi	r6,11779
  800ac8:	01cee8f4 	movhi	r7,15267
  800acc:	319c1cc4 	addi	r6,r6,28787
  800ad0:	39c66284 	addi	r7,r7,6538
  800ad4:	1009883a 	mov	r4,r2
  800ad8:	180b883a 	mov	r5,r3
  800adc:	1025883a 	mov	r18,r2
  800ae0:	1821883a 	mov	r16,r3
  800ae4:	0804aec0 	call	804aec <__subdf3>
  800ae8:	100d883a 	mov	r6,r2
  800aec:	180f883a 	mov	r7,r3
  800af0:	9009883a 	mov	r4,r18
  800af4:	800b883a 	mov	r5,r16
  800af8:	88800015 	stw	r2,0(r17)
  800afc:	88c00115 	stw	r3,4(r17)
  800b00:	0804aec0 	call	804aec <__subdf3>
  800b04:	018b80f4 	movhi	r6,11779
  800b08:	01cee8f4 	movhi	r7,15267
  800b0c:	319c1cc4 	addi	r6,r6,28787
  800b10:	39c66284 	addi	r7,r7,6538
  800b14:	003f2e06 	br	8007d0 <__ieee754_rem_pio2+0xcc>
  800b18:	1812d53a 	srli	r9,r3,20
  800b1c:	8021d53a 	srai	r16,r16,20
  800b20:	4a41ffcc 	andi	r9,r9,2047
  800b24:	8253c83a 	sub	r9,r16,r9
  800b28:	4a400448 	cmpgei	r9,r9,17
  800b2c:	48000c1e 	bne	r9,zero,800b60 <__ieee754_rem_pio2+0x45c>
  800b30:	88800015 	stw	r2,0(r17)
  800b34:	88c00115 	stw	r3,4(r17)
  800b38:	003f7906 	br	800920 <__ieee754_rem_pio2+0x21c>
  800b3c:	200d883a 	mov	r6,r4
  800b40:	280f883a 	mov	r7,r5
  800b44:	0804aec0 	call	804aec <__subdf3>
  800b48:	88800215 	stw	r2,8(r17)
  800b4c:	88c00315 	stw	r3,12(r17)
  800b50:	88800015 	stw	r2,0(r17)
  800b54:	88c00115 	stw	r3,4(r17)
  800b58:	0029883a 	mov	r20,zero
  800b5c:	003f2206 	br	8007e8 <__ieee754_rem_pio2+0xe4>
  800b60:	01cf7474 	movhi	r7,15825
  800b64:	01869834 	movhi	r6,6752
  800b68:	39ed1844 	addi	r7,r7,-19359
  800b6c:	b009883a 	mov	r4,r22
  800b70:	a80b883a 	mov	r5,r21
  800b74:	08043400 	call	804340 <__muldf3>
  800b78:	d9400217 	ldw	r5,8(sp)
  800b7c:	100d883a 	mov	r6,r2
  800b80:	180f883a 	mov	r7,r3
  800b84:	e009883a 	mov	r4,fp
  800b88:	102f883a 	mov	r23,r2
  800b8c:	1827883a 	mov	r19,r3
  800b90:	0804aec0 	call	804aec <__subdf3>
  800b94:	d9400217 	ldw	r5,8(sp)
  800b98:	100d883a 	mov	r6,r2
  800b9c:	180f883a 	mov	r7,r3
  800ba0:	e009883a 	mov	r4,fp
  800ba4:	d8800315 	stw	r2,12(sp)
  800ba8:	d8c00415 	stw	r3,16(sp)
  800bac:	0804aec0 	call	804aec <__subdf3>
  800bb0:	b80d883a 	mov	r6,r23
  800bb4:	980f883a 	mov	r7,r19
  800bb8:	1009883a 	mov	r4,r2
  800bbc:	180b883a 	mov	r5,r3
  800bc0:	0804aec0 	call	804aec <__subdf3>
  800bc4:	018b80f4 	movhi	r6,11779
  800bc8:	01cee8f4 	movhi	r7,15267
  800bcc:	319c1cc4 	addi	r6,r6,28787
  800bd0:	39c66284 	addi	r7,r7,6538
  800bd4:	b009883a 	mov	r4,r22
  800bd8:	a80b883a 	mov	r5,r21
  800bdc:	102f883a 	mov	r23,r2
  800be0:	1827883a 	mov	r19,r3
  800be4:	08043400 	call	804340 <__muldf3>
  800be8:	b80d883a 	mov	r6,r23
  800bec:	980f883a 	mov	r7,r19
  800bf0:	1009883a 	mov	r4,r2
  800bf4:	180b883a 	mov	r5,r3
  800bf8:	0804aec0 	call	804aec <__subdf3>
  800bfc:	da400417 	ldw	r9,16(sp)
  800c00:	db800317 	ldw	r14,12(sp)
  800c04:	100d883a 	mov	r6,r2
  800c08:	480b883a 	mov	r5,r9
  800c0c:	7009883a 	mov	r4,r14
  800c10:	180f883a 	mov	r7,r3
  800c14:	da400215 	stw	r9,8(sp)
  800c18:	102f883a 	mov	r23,r2
  800c1c:	1827883a 	mov	r19,r3
  800c20:	0804aec0 	call	804aec <__subdf3>
  800c24:	1815883a 	mov	r10,r3
  800c28:	1806d53a 	srli	r3,r3,20
  800c2c:	da400217 	ldw	r9,8(sp)
  800c30:	db800317 	ldw	r14,12(sp)
  800c34:	18c1ffcc 	andi	r3,r3,2047
  800c38:	80e1c83a 	sub	r16,r16,r3
  800c3c:	84000c88 	cmpgei	r16,r16,50
  800c40:	1017883a 	mov	r11,r2
  800c44:	80003f26 	beq	r16,zero,800d44 <__ieee754_rem_pio2+0x640>
  800c48:	01cee8f4 	movhi	r7,15267
  800c4c:	018b8034 	movhi	r6,11776
  800c50:	39c66284 	addi	r7,r7,6538
  800c54:	b009883a 	mov	r4,r22
  800c58:	a80b883a 	mov	r5,r21
  800c5c:	da400315 	stw	r9,12(sp)
  800c60:	db800215 	stw	r14,8(sp)
  800c64:	08043400 	call	804340 <__muldf3>
  800c68:	db800217 	ldw	r14,8(sp)
  800c6c:	da400317 	ldw	r9,12(sp)
  800c70:	100d883a 	mov	r6,r2
  800c74:	7009883a 	mov	r4,r14
  800c78:	480b883a 	mov	r5,r9
  800c7c:	180f883a 	mov	r7,r3
  800c80:	1027883a 	mov	r19,r2
  800c84:	1821883a 	mov	r16,r3
  800c88:	db800515 	stw	r14,20(sp)
  800c8c:	da400415 	stw	r9,16(sp)
  800c90:	0804aec0 	call	804aec <__subdf3>
  800c94:	db800517 	ldw	r14,20(sp)
  800c98:	da400417 	ldw	r9,16(sp)
  800c9c:	100d883a 	mov	r6,r2
  800ca0:	7009883a 	mov	r4,r14
  800ca4:	480b883a 	mov	r5,r9
  800ca8:	180f883a 	mov	r7,r3
  800cac:	d8800315 	stw	r2,12(sp)
  800cb0:	d8c00215 	stw	r3,8(sp)
  800cb4:	0804aec0 	call	804aec <__subdf3>
  800cb8:	980d883a 	mov	r6,r19
  800cbc:	800f883a 	mov	r7,r16
  800cc0:	1009883a 	mov	r4,r2
  800cc4:	180b883a 	mov	r5,r3
  800cc8:	0804aec0 	call	804aec <__subdf3>
  800ccc:	01894834 	movhi	r6,9504
  800cd0:	01ce5f34 	movhi	r7,14716
  800cd4:	31927044 	addi	r6,r6,18881
  800cd8:	39e0e684 	addi	r7,r7,-31846
  800cdc:	b009883a 	mov	r4,r22
  800ce0:	a80b883a 	mov	r5,r21
  800ce4:	1027883a 	mov	r19,r2
  800ce8:	1821883a 	mov	r16,r3
  800cec:	08043400 	call	804340 <__muldf3>
  800cf0:	980d883a 	mov	r6,r19
  800cf4:	800f883a 	mov	r7,r16
  800cf8:	1009883a 	mov	r4,r2
  800cfc:	180b883a 	mov	r5,r3
  800d00:	0804aec0 	call	804aec <__subdf3>
  800d04:	db400317 	ldw	r13,12(sp)
  800d08:	db000217 	ldw	r12,8(sp)
  800d0c:	100d883a 	mov	r6,r2
  800d10:	6809883a 	mov	r4,r13
  800d14:	600b883a 	mov	r5,r12
  800d18:	180f883a 	mov	r7,r3
  800d1c:	102f883a 	mov	r23,r2
  800d20:	1827883a 	mov	r19,r3
  800d24:	0804aec0 	call	804aec <__subdf3>
  800d28:	db400317 	ldw	r13,12(sp)
  800d2c:	db000217 	ldw	r12,8(sp)
  800d30:	1017883a 	mov	r11,r2
  800d34:	1815883a 	mov	r10,r3
  800d38:	88800015 	stw	r2,0(r17)
  800d3c:	88c00115 	stw	r3,4(r17)
  800d40:	003ef706 	br	800920 <__ieee754_rem_pio2+0x21c>
  800d44:	88800015 	stw	r2,0(r17)
  800d48:	8a800115 	stw	r10,4(r17)
  800d4c:	701b883a 	mov	r13,r14
  800d50:	4819883a 	mov	r12,r9
  800d54:	003ef206 	br	800920 <__ieee754_rem_pio2+0x21c>
  800d58:	01c00084 	movi	r7,2
  800d5c:	003f4206 	br	800a68 <__ieee754_rem_pio2+0x364>
  800d60:	01c000c4 	movi	r7,3
  800d64:	003f4006 	br	800a68 <__ieee754_rem_pio2+0x364>
  800d68:	08038e80 	call	8038e8 <__adddf3>
  800d6c:	010ffe74 	movhi	r4,16377
  800d70:	21087ec4 	addi	r4,r4,8699
  800d74:	1027883a 	mov	r19,r2
  800d78:	1825883a 	mov	r18,r3
  800d7c:	81001926 	beq	r16,r4,800de4 <__ieee754_rem_pio2+0x6e0>
  800d80:	018698b4 	movhi	r6,6754
  800d84:	01cf7474 	movhi	r7,15825
  800d88:	3198cc44 	addi	r6,r6,25393
  800d8c:	39ed1844 	addi	r7,r7,-19359
  800d90:	1009883a 	mov	r4,r2
  800d94:	180b883a 	mov	r5,r3
  800d98:	08038e80 	call	8038e8 <__adddf3>
  800d9c:	100d883a 	mov	r6,r2
  800da0:	180f883a 	mov	r7,r3
  800da4:	9809883a 	mov	r4,r19
  800da8:	900b883a 	mov	r5,r18
  800dac:	88800015 	stw	r2,0(r17)
  800db0:	88c00115 	stw	r3,4(r17)
  800db4:	0804aec0 	call	804aec <__subdf3>
  800db8:	018698b4 	movhi	r6,6754
  800dbc:	01cf7474 	movhi	r7,15825
  800dc0:	3198cc44 	addi	r6,r6,25393
  800dc4:	39ed1844 	addi	r7,r7,-19359
  800dc8:	1009883a 	mov	r4,r2
  800dcc:	180b883a 	mov	r5,r3
  800dd0:	08038e80 	call	8038e8 <__adddf3>
  800dd4:	88800215 	stw	r2,8(r17)
  800dd8:	88c00315 	stw	r3,12(r17)
  800ddc:	053fffc4 	movi	r20,-1
  800de0:	003e8106 	br	8007e8 <__ieee754_rem_pio2+0xe4>
  800de4:	01cf7474 	movhi	r7,15825
  800de8:	01869834 	movhi	r6,6752
  800dec:	39ed1844 	addi	r7,r7,-19359
  800df0:	1009883a 	mov	r4,r2
  800df4:	180b883a 	mov	r5,r3
  800df8:	08038e80 	call	8038e8 <__adddf3>
  800dfc:	018b80f4 	movhi	r6,11779
  800e00:	01cee8f4 	movhi	r7,15267
  800e04:	319c1cc4 	addi	r6,r6,28787
  800e08:	39c66284 	addi	r7,r7,6538
  800e0c:	1009883a 	mov	r4,r2
  800e10:	180b883a 	mov	r5,r3
  800e14:	1025883a 	mov	r18,r2
  800e18:	1821883a 	mov	r16,r3
  800e1c:	08038e80 	call	8038e8 <__adddf3>
  800e20:	100d883a 	mov	r6,r2
  800e24:	180f883a 	mov	r7,r3
  800e28:	9009883a 	mov	r4,r18
  800e2c:	800b883a 	mov	r5,r16
  800e30:	88800015 	stw	r2,0(r17)
  800e34:	88c00115 	stw	r3,4(r17)
  800e38:	0804aec0 	call	804aec <__subdf3>
  800e3c:	018b80f4 	movhi	r6,11779
  800e40:	01cee8f4 	movhi	r7,15267
  800e44:	319c1cc4 	addi	r6,r6,28787
  800e48:	39c66284 	addi	r7,r7,6538
  800e4c:	003fde06 	br	800dc8 <__ieee754_rem_pio2+0x6c4>

00800e50 <__kernel_cos>:
  800e50:	defff204 	addi	sp,sp,-56
  800e54:	dc000415 	stw	r16,16(sp)
  800e58:	04200034 	movhi	r16,32768
  800e5c:	843fffc4 	addi	r16,r16,-1
  800e60:	df000c15 	stw	fp,48(sp)
  800e64:	ddc00b15 	stw	r23,44(sp)
  800e68:	dd800a15 	stw	r22,40(sp)
  800e6c:	dd400915 	stw	r21,36(sp)
  800e70:	dc800615 	stw	r18,24(sp)
  800e74:	dfc00d15 	stw	ra,52(sp)
  800e78:	dd000815 	stw	r20,32(sp)
  800e7c:	dcc00715 	stw	r19,28(sp)
  800e80:	dc400515 	stw	r17,20(sp)
  800e84:	2c24703a 	and	r18,r5,r16
  800e88:	008f9034 	movhi	r2,15936
  800e8c:	2839883a 	mov	fp,r5
  800e90:	202b883a 	mov	r21,r4
  800e94:	302d883a 	mov	r22,r6
  800e98:	382f883a 	mov	r23,r7
  800e9c:	9080750e 	bge	r18,r2,801074 <__kernel_cos+0x224>
  800ea0:	08053a00 	call	8053a0 <__fixdfsi>
  800ea4:	10011226 	beq	r2,zero,8012f0 <__kernel_cos+0x4a0>
  800ea8:	a80d883a 	mov	r6,r21
  800eac:	e00f883a 	mov	r7,fp
  800eb0:	a809883a 	mov	r4,r21
  800eb4:	e00b883a 	mov	r5,fp
  800eb8:	08043400 	call	804340 <__muldf3>
  800ebc:	01afa234 	movhi	r6,48776
  800ec0:	01ef6a74 	movhi	r7,48553
  800ec4:	318e3504 	addi	r6,r6,14548
  800ec8:	39feba44 	addi	r7,r7,-1303
  800ecc:	1009883a 	mov	r4,r2
  800ed0:	180b883a 	mov	r5,r3
  800ed4:	1023883a 	mov	r17,r2
  800ed8:	1821883a 	mov	r16,r3
  800edc:	08043400 	call	804340 <__muldf3>
  800ee0:	01af6d74 	movhi	r6,48565
  800ee4:	01cf88b4 	movhi	r7,15906
  800ee8:	31ac7104 	addi	r6,r6,-20028
  800eec:	39fba784 	addi	r7,r7,-4450
  800ef0:	1009883a 	mov	r4,r2
  800ef4:	180b883a 	mov	r5,r3
  800ef8:	08038e80 	call	8038e8 <__adddf3>
  800efc:	880d883a 	mov	r6,r17
  800f00:	800f883a 	mov	r7,r16
  800f04:	1009883a 	mov	r4,r2
  800f08:	180b883a 	mov	r5,r3
  800f0c:	08043400 	call	804340 <__muldf3>
  800f10:	01a02734 	movhi	r6,32924
  800f14:	01cfa4b4 	movhi	r7,16018
  800f18:	3194ab44 	addi	r6,r6,21165
  800f1c:	39df93c4 	addi	r7,r7,32335
  800f20:	1009883a 	mov	r4,r2
  800f24:	180b883a 	mov	r5,r3
  800f28:	0804aec0 	call	804aec <__subdf3>
  800f2c:	880d883a 	mov	r6,r17
  800f30:	800f883a 	mov	r7,r16
  800f34:	1009883a 	mov	r4,r2
  800f38:	180b883a 	mov	r5,r3
  800f3c:	08043400 	call	804340 <__muldf3>
  800f40:	018672f4 	movhi	r6,6603
  800f44:	01cfbeb4 	movhi	r7,16122
  800f48:	31856404 	addi	r6,r6,5520
  800f4c:	39c06804 	addi	r7,r7,416
  800f50:	1009883a 	mov	r4,r2
  800f54:	180b883a 	mov	r5,r3
  800f58:	08038e80 	call	8038e8 <__adddf3>
  800f5c:	880d883a 	mov	r6,r17
  800f60:	800f883a 	mov	r7,r16
  800f64:	1009883a 	mov	r4,r2
  800f68:	180b883a 	mov	r5,r3
  800f6c:	08043400 	call	804340 <__muldf3>
  800f70:	0185b074 	movhi	r6,5825
  800f74:	01cfd5f4 	movhi	r7,16215
  800f78:	31945dc4 	addi	r6,r6,20855
  800f7c:	39f05b04 	addi	r7,r7,-16020
  800f80:	1009883a 	mov	r4,r2
  800f84:	180b883a 	mov	r5,r3
  800f88:	0804aec0 	call	804aec <__subdf3>
  800f8c:	880d883a 	mov	r6,r17
  800f90:	800f883a 	mov	r7,r16
  800f94:	1009883a 	mov	r4,r2
  800f98:	180b883a 	mov	r5,r3
  800f9c:	08043400 	call	804340 <__muldf3>
  800fa0:	01955574 	movhi	r6,21845
  800fa4:	01cfe974 	movhi	r7,16293
  800fa8:	31955304 	addi	r6,r6,21836
  800fac:	39d55544 	addi	r7,r7,21845
  800fb0:	1009883a 	mov	r4,r2
  800fb4:	180b883a 	mov	r5,r3
  800fb8:	08038e80 	call	8038e8 <__adddf3>
  800fbc:	880d883a 	mov	r6,r17
  800fc0:	800f883a 	mov	r7,r16
  800fc4:	1009883a 	mov	r4,r2
  800fc8:	180b883a 	mov	r5,r3
  800fcc:	08043400 	call	804340 <__muldf3>
  800fd0:	1017883a 	mov	r11,r2
  800fd4:	1815883a 	mov	r10,r3
  800fd8:	8809883a 	mov	r4,r17
  800fdc:	800b883a 	mov	r5,r16
  800fe0:	000d883a 	mov	r6,zero
  800fe4:	01cff834 	movhi	r7,16352
  800fe8:	da800115 	stw	r10,4(sp)
  800fec:	dac00015 	stw	r11,0(sp)
  800ff0:	08043400 	call	804340 <__muldf3>
  800ff4:	dac00017 	ldw	r11,0(sp)
  800ff8:	da800117 	ldw	r10,4(sp)
  800ffc:	8809883a 	mov	r4,r17
  801000:	580d883a 	mov	r6,r11
  801004:	500f883a 	mov	r7,r10
  801008:	800b883a 	mov	r5,r16
  80100c:	1023883a 	mov	r17,r2
  801010:	1821883a 	mov	r16,r3
  801014:	08043400 	call	804340 <__muldf3>
  801018:	b00d883a 	mov	r6,r22
  80101c:	b80f883a 	mov	r7,r23
  801020:	a809883a 	mov	r4,r21
  801024:	e00b883a 	mov	r5,fp
  801028:	1027883a 	mov	r19,r2
  80102c:	1825883a 	mov	r18,r3
  801030:	08043400 	call	804340 <__muldf3>
  801034:	9809883a 	mov	r4,r19
  801038:	900b883a 	mov	r5,r18
  80103c:	100d883a 	mov	r6,r2
  801040:	180f883a 	mov	r7,r3
  801044:	0804aec0 	call	804aec <__subdf3>
  801048:	8809883a 	mov	r4,r17
  80104c:	800b883a 	mov	r5,r16
  801050:	100d883a 	mov	r6,r2
  801054:	180f883a 	mov	r7,r3
  801058:	0804aec0 	call	804aec <__subdf3>
  80105c:	100d883a 	mov	r6,r2
  801060:	180f883a 	mov	r7,r3
  801064:	0009883a 	mov	r4,zero
  801068:	014ffc34 	movhi	r5,16368
  80106c:	0804aec0 	call	804aec <__subdf3>
  801070:	00008f06 	br	8012b0 <__kernel_cos+0x460>
  801074:	200d883a 	mov	r6,r4
  801078:	280f883a 	mov	r7,r5
  80107c:	08043400 	call	804340 <__muldf3>
  801080:	01afa234 	movhi	r6,48776
  801084:	01ef6a74 	movhi	r7,48553
  801088:	318e3504 	addi	r6,r6,14548
  80108c:	39feba44 	addi	r7,r7,-1303
  801090:	1009883a 	mov	r4,r2
  801094:	180b883a 	mov	r5,r3
  801098:	1029883a 	mov	r20,r2
  80109c:	1827883a 	mov	r19,r3
  8010a0:	08043400 	call	804340 <__muldf3>
  8010a4:	01af6d74 	movhi	r6,48565
  8010a8:	01cf88b4 	movhi	r7,15906
  8010ac:	31ac7104 	addi	r6,r6,-20028
  8010b0:	39fba784 	addi	r7,r7,-4450
  8010b4:	1009883a 	mov	r4,r2
  8010b8:	180b883a 	mov	r5,r3
  8010bc:	08038e80 	call	8038e8 <__adddf3>
  8010c0:	a00d883a 	mov	r6,r20
  8010c4:	980f883a 	mov	r7,r19
  8010c8:	1009883a 	mov	r4,r2
  8010cc:	180b883a 	mov	r5,r3
  8010d0:	08043400 	call	804340 <__muldf3>
  8010d4:	01a02734 	movhi	r6,32924
  8010d8:	01cfa4b4 	movhi	r7,16018
  8010dc:	3194ab44 	addi	r6,r6,21165
  8010e0:	39df93c4 	addi	r7,r7,32335
  8010e4:	1009883a 	mov	r4,r2
  8010e8:	180b883a 	mov	r5,r3
  8010ec:	0804aec0 	call	804aec <__subdf3>
  8010f0:	a00d883a 	mov	r6,r20
  8010f4:	980f883a 	mov	r7,r19
  8010f8:	1009883a 	mov	r4,r2
  8010fc:	180b883a 	mov	r5,r3
  801100:	08043400 	call	804340 <__muldf3>
  801104:	018672f4 	movhi	r6,6603
  801108:	01cfbeb4 	movhi	r7,16122
  80110c:	31856404 	addi	r6,r6,5520
  801110:	39c06804 	addi	r7,r7,416
  801114:	1009883a 	mov	r4,r2
  801118:	180b883a 	mov	r5,r3
  80111c:	08038e80 	call	8038e8 <__adddf3>
  801120:	a00d883a 	mov	r6,r20
  801124:	980f883a 	mov	r7,r19
  801128:	1009883a 	mov	r4,r2
  80112c:	180b883a 	mov	r5,r3
  801130:	08043400 	call	804340 <__muldf3>
  801134:	0185b074 	movhi	r6,5825
  801138:	01cfd5f4 	movhi	r7,16215
  80113c:	31945dc4 	addi	r6,r6,20855
  801140:	39f05b04 	addi	r7,r7,-16020
  801144:	1009883a 	mov	r4,r2
  801148:	180b883a 	mov	r5,r3
  80114c:	0804aec0 	call	804aec <__subdf3>
  801150:	a00d883a 	mov	r6,r20
  801154:	980f883a 	mov	r7,r19
  801158:	1009883a 	mov	r4,r2
  80115c:	180b883a 	mov	r5,r3
  801160:	08043400 	call	804340 <__muldf3>
  801164:	01955574 	movhi	r6,21845
  801168:	01cfe974 	movhi	r7,16293
  80116c:	31955304 	addi	r6,r6,21836
  801170:	39d55544 	addi	r7,r7,21845
  801174:	1009883a 	mov	r4,r2
  801178:	180b883a 	mov	r5,r3
  80117c:	08038e80 	call	8038e8 <__adddf3>
  801180:	1009883a 	mov	r4,r2
  801184:	a00d883a 	mov	r6,r20
  801188:	980f883a 	mov	r7,r19
  80118c:	180b883a 	mov	r5,r3
  801190:	08043400 	call	804340 <__muldf3>
  801194:	010ff4f4 	movhi	r4,16339
  801198:	210ccc84 	addi	r4,r4,13106
  80119c:	1013883a 	mov	r9,r2
  8011a0:	1811883a 	mov	r8,r3
  8011a4:	a023883a 	mov	r17,r20
  8011a8:	9821883a 	mov	r16,r19
  8011ac:	1017883a 	mov	r11,r2
  8011b0:	1815883a 	mov	r10,r3
  8011b4:	24bf880e 	bge	r4,r18,800fd8 <__kernel_cos+0x188>
  8011b8:	008ffa74 	movhi	r2,16361
  8011bc:	14804816 	blt	r2,r18,8012e0 <__kernel_cos+0x490>
  8011c0:	043ff834 	movhi	r16,65504
  8011c4:	9421883a 	add	r16,r18,r16
  8011c8:	000d883a 	mov	r6,zero
  8011cc:	800f883a 	mov	r7,r16
  8011d0:	0009883a 	mov	r4,zero
  8011d4:	014ffc34 	movhi	r5,16368
  8011d8:	da400015 	stw	r9,0(sp)
  8011dc:	d8c00115 	stw	r3,4(sp)
  8011e0:	0804aec0 	call	804aec <__subdf3>
  8011e4:	da400017 	ldw	r9,0(sp)
  8011e8:	da000117 	ldw	r8,4(sp)
  8011ec:	1017883a 	mov	r11,r2
  8011f0:	1815883a 	mov	r10,r3
  8011f4:	980b883a 	mov	r5,r19
  8011f8:	000d883a 	mov	r6,zero
  8011fc:	01cff834 	movhi	r7,16352
  801200:	a009883a 	mov	r4,r20
  801204:	da800115 	stw	r10,4(sp)
  801208:	dac00015 	stw	r11,0(sp)
  80120c:	da000315 	stw	r8,12(sp)
  801210:	da400215 	stw	r9,8(sp)
  801214:	08043400 	call	804340 <__muldf3>
  801218:	800f883a 	mov	r7,r16
  80121c:	000d883a 	mov	r6,zero
  801220:	1009883a 	mov	r4,r2
  801224:	180b883a 	mov	r5,r3
  801228:	0804aec0 	call	804aec <__subdf3>
  80122c:	da400217 	ldw	r9,8(sp)
  801230:	da000317 	ldw	r8,12(sp)
  801234:	980b883a 	mov	r5,r19
  801238:	480d883a 	mov	r6,r9
  80123c:	400f883a 	mov	r7,r8
  801240:	a009883a 	mov	r4,r20
  801244:	1023883a 	mov	r17,r2
  801248:	1821883a 	mov	r16,r3
  80124c:	08043400 	call	804340 <__muldf3>
  801250:	b00d883a 	mov	r6,r22
  801254:	b80f883a 	mov	r7,r23
  801258:	a809883a 	mov	r4,r21
  80125c:	e00b883a 	mov	r5,fp
  801260:	1027883a 	mov	r19,r2
  801264:	1825883a 	mov	r18,r3
  801268:	08043400 	call	804340 <__muldf3>
  80126c:	100d883a 	mov	r6,r2
  801270:	180f883a 	mov	r7,r3
  801274:	9809883a 	mov	r4,r19
  801278:	900b883a 	mov	r5,r18
  80127c:	0804aec0 	call	804aec <__subdf3>
  801280:	100d883a 	mov	r6,r2
  801284:	180f883a 	mov	r7,r3
  801288:	8809883a 	mov	r4,r17
  80128c:	800b883a 	mov	r5,r16
  801290:	0804aec0 	call	804aec <__subdf3>
  801294:	dac00017 	ldw	r11,0(sp)
  801298:	da800117 	ldw	r10,4(sp)
  80129c:	100d883a 	mov	r6,r2
  8012a0:	180f883a 	mov	r7,r3
  8012a4:	5809883a 	mov	r4,r11
  8012a8:	500b883a 	mov	r5,r10
  8012ac:	0804aec0 	call	804aec <__subdf3>
  8012b0:	dfc00d17 	ldw	ra,52(sp)
  8012b4:	df000c17 	ldw	fp,48(sp)
  8012b8:	ddc00b17 	ldw	r23,44(sp)
  8012bc:	dd800a17 	ldw	r22,40(sp)
  8012c0:	dd400917 	ldw	r21,36(sp)
  8012c4:	dd000817 	ldw	r20,32(sp)
  8012c8:	dcc00717 	ldw	r19,28(sp)
  8012cc:	dc800617 	ldw	r18,24(sp)
  8012d0:	dc400517 	ldw	r17,20(sp)
  8012d4:	dc000417 	ldw	r16,16(sp)
  8012d8:	dec00e04 	addi	sp,sp,56
  8012dc:	f800283a 	ret
  8012e0:	0017883a 	mov	r11,zero
  8012e4:	028ff9f4 	movhi	r10,16359
  8012e8:	040ff4b4 	movhi	r16,16338
  8012ec:	003fc106 	br	8011f4 <__kernel_cos+0x3a4>
  8012f0:	0005883a 	mov	r2,zero
  8012f4:	00cffc34 	movhi	r3,16368
  8012f8:	003fed06 	br	8012b0 <__kernel_cos+0x460>

008012fc <__kernel_rem_pio2>:
  8012fc:	deff5f04 	addi	sp,sp,-644
  801300:	d880a117 	ldw	r2,644(sp)
  801304:	dc009715 	stw	r16,604(sp)
  801308:	dfc0a015 	stw	ra,640(sp)
  80130c:	100690ba 	slli	r3,r2,2
  801310:	00802074 	movhi	r2,129
  801314:	df009f15 	stw	fp,636(sp)
  801318:	1885883a 	add	r2,r3,r2
  80131c:	108f2417 	ldw	r2,15504(r2)
  801320:	ddc09e15 	stw	r23,632(sp)
  801324:	dd809d15 	stw	r22,628(sp)
  801328:	d8800515 	stw	r2,20(sp)
  80132c:	38bfffc4 	addi	r2,r7,-1
  801330:	dd409c15 	stw	r21,624(sp)
  801334:	dd009b15 	stw	r20,620(sp)
  801338:	dcc09a15 	stw	r19,616(sp)
  80133c:	dc809915 	stw	r18,612(sp)
  801340:	dc409815 	stw	r17,608(sp)
  801344:	d9c00715 	stw	r7,28(sp)
  801348:	30fffb10 	cmplti	r3,r6,-20
  80134c:	d9000215 	stw	r4,8(sp)
  801350:	d9400915 	stw	r5,36(sp)
  801354:	d8800115 	stw	r2,4(sp)
  801358:	3021883a 	mov	r16,r6
  80135c:	1802801e 	bne	r3,zero,801d60 <__kernel_rem_pio2+0xa64>
  801360:	01400604 	movi	r5,24
  801364:	313fff44 	addi	r4,r6,-3
  801368:	08026400 	call	802640 <__divsi3>
  80136c:	d8800615 	stw	r2,24(sp)
  801370:	10800044 	addi	r2,r2,1
  801374:	100690ba 	slli	r3,r2,2
  801378:	10c5c83a 	sub	r2,r2,r3
  80137c:	100690fa 	slli	r3,r2,3
  801380:	d9000117 	ldw	r4,4(sp)
  801384:	80c7883a 	add	r3,r16,r3
  801388:	d8800517 	ldw	r2,20(sp)
  80138c:	d8c00315 	stw	r3,12(sp)
  801390:	d8c00617 	ldw	r3,24(sp)
  801394:	1105883a 	add	r2,r2,r4
  801398:	1925c83a 	sub	r18,r3,r4
  80139c:	10000f16 	blt	r2,zero,8013dc <__kernel_rem_pio2+0xe0>
  8013a0:	902290ba 	slli	r17,r18,2
  8013a4:	d8c0a217 	ldw	r3,648(sp)
  8013a8:	10800044 	addi	r2,r2,1
  8013ac:	dc001f04 	addi	r16,sp,124
  8013b0:	1c63883a 	add	r17,r3,r17
  8013b4:	14a7883a 	add	r19,r2,r18
  8013b8:	90015716 	blt	r18,zero,801918 <__kernel_rem_pio2+0x61c>
  8013bc:	89000017 	ldw	r4,0(r17)
  8013c0:	08054200 	call	805420 <__floatsidf>
  8013c4:	80800015 	stw	r2,0(r16)
  8013c8:	80c00115 	stw	r3,4(r16)
  8013cc:	94800044 	addi	r18,r18,1
  8013d0:	84000204 	addi	r16,r16,8
  8013d4:	8c400104 	addi	r17,r17,4
  8013d8:	94fff71e 	bne	r18,r19,8013b8 <__kernel_rem_pio2+0xbc>
  8013dc:	d8800517 	ldw	r2,20(sp)
  8013e0:	10002516 	blt	r2,zero,801478 <__kernel_rem_pio2+0x17c>
  8013e4:	dcc00117 	ldw	r19,4(sp)
  8013e8:	d8c01f04 	addi	r3,sp,124
  8013ec:	dc406f04 	addi	r17,sp,444
  8013f0:	982490fa 	slli	r18,r19,3
  8013f4:	94000204 	addi	r16,r18,8
  8013f8:	1ca5883a 	add	r18,r3,r18
  8013fc:	d8c00717 	ldw	r3,28(sp)
  801400:	10ef883a 	add	r23,r2,r3
  801404:	d8800217 	ldw	r2,8(sp)
  801408:	80a1883a 	add	r16,r16,r2
  80140c:	d8800117 	ldw	r2,4(sp)
  801410:	10015616 	blt	r2,zero,80196c <__kernel_rem_pio2+0x670>
  801414:	dd000217 	ldw	r20,8(sp)
  801418:	902d883a 	mov	r22,r18
  80141c:	0039883a 	mov	fp,zero
  801420:	002b883a 	mov	r21,zero
  801424:	b1800017 	ldw	r6,0(r22)
  801428:	b1c00117 	ldw	r7,4(r22)
  80142c:	a1000017 	ldw	r4,0(r20)
  801430:	a1400117 	ldw	r5,4(r20)
  801434:	a5000204 	addi	r20,r20,8
  801438:	b5bffe04 	addi	r22,r22,-8
  80143c:	08043400 	call	804340 <__muldf3>
  801440:	e009883a 	mov	r4,fp
  801444:	a80b883a 	mov	r5,r21
  801448:	100d883a 	mov	r6,r2
  80144c:	180f883a 	mov	r7,r3
  801450:	08038e80 	call	8038e8 <__adddf3>
  801454:	1039883a 	mov	fp,r2
  801458:	182b883a 	mov	r21,r3
  80145c:	a43ff11e 	bne	r20,r16,801424 <__kernel_rem_pio2+0x128>
  801460:	8f000015 	stw	fp,0(r17)
  801464:	8d400115 	stw	r21,4(r17)
  801468:	9cc00044 	addi	r19,r19,1
  80146c:	8c400204 	addi	r17,r17,8
  801470:	94800204 	addi	r18,r18,8
  801474:	9dffe51e 	bne	r19,r23,80140c <__kernel_rem_pio2+0x110>
  801478:	dc400517 	ldw	r17,20(sp)
  80147c:	d8c00717 	ldw	r3,28(sp)
  801480:	d9000217 	ldw	r4,8(sp)
  801484:	88bfffc4 	addi	r2,r17,-1
  801488:	180690fa 	slli	r3,r3,3
  80148c:	883890ba 	slli	fp,r17,2
  801490:	100490ba 	slli	r2,r2,2
  801494:	243ffe04 	addi	r16,r4,-8
  801498:	80e1883a 	add	r16,r16,r3
  80149c:	d9000b04 	addi	r4,sp,44
  8014a0:	d8c09704 	addi	r3,sp,604
  8014a4:	2709883a 	add	r4,r4,fp
  8014a8:	1885883a 	add	r2,r3,r2
  8014ac:	d9000415 	stw	r4,16(sp)
  8014b0:	d8800815 	stw	r2,32(sp)
  8014b4:	883890fa 	slli	fp,r17,3
  8014b8:	d8809704 	addi	r2,sp,604
  8014bc:	1705883a 	add	r2,r2,fp
  8014c0:	157fd817 	ldw	r21,-160(r2)
  8014c4:	153fd917 	ldw	r20,-156(r2)
  8014c8:	0440280e 	bge	zero,r17,80156c <__kernel_rem_pio2+0x270>
  8014cc:	d8806f04 	addi	r2,sp,444
  8014d0:	1725883a 	add	r18,r2,fp
  8014d4:	dcc00b04 	addi	r19,sp,44
  8014d8:	000d883a 	mov	r6,zero
  8014dc:	01cf9c34 	movhi	r7,15984
  8014e0:	a809883a 	mov	r4,r21
  8014e4:	a00b883a 	mov	r5,r20
  8014e8:	08043400 	call	804340 <__muldf3>
  8014ec:	180b883a 	mov	r5,r3
  8014f0:	1009883a 	mov	r4,r2
  8014f4:	08053a00 	call	8053a0 <__fixdfsi>
  8014f8:	1009883a 	mov	r4,r2
  8014fc:	08054200 	call	805420 <__floatsidf>
  801500:	000d883a 	mov	r6,zero
  801504:	01d05c34 	movhi	r7,16752
  801508:	1009883a 	mov	r4,r2
  80150c:	180b883a 	mov	r5,r3
  801510:	102f883a 	mov	r23,r2
  801514:	182d883a 	mov	r22,r3
  801518:	08043400 	call	804340 <__muldf3>
  80151c:	100d883a 	mov	r6,r2
  801520:	180f883a 	mov	r7,r3
  801524:	a809883a 	mov	r4,r21
  801528:	a00b883a 	mov	r5,r20
  80152c:	0804aec0 	call	804aec <__subdf3>
  801530:	180b883a 	mov	r5,r3
  801534:	1009883a 	mov	r4,r2
  801538:	08053a00 	call	8053a0 <__fixdfsi>
  80153c:	91bffe17 	ldw	r6,-8(r18)
  801540:	91ffff17 	ldw	r7,-4(r18)
  801544:	98800015 	stw	r2,0(r19)
  801548:	b809883a 	mov	r4,r23
  80154c:	b00b883a 	mov	r5,r22
  801550:	08038e80 	call	8038e8 <__adddf3>
  801554:	102b883a 	mov	r21,r2
  801558:	94bffe04 	addi	r18,r18,-8
  80155c:	d8806f04 	addi	r2,sp,444
  801560:	1829883a 	mov	r20,r3
  801564:	9cc00104 	addi	r19,r19,4
  801568:	14bfdb1e 	bne	r2,r18,8014d8 <__kernel_rem_pio2+0x1dc>
  80156c:	dd800317 	ldw	r22,12(sp)
  801570:	a809883a 	mov	r4,r21
  801574:	a00b883a 	mov	r5,r20
  801578:	b00d883a 	mov	r6,r22
  80157c:	08024800 	call	802480 <scalbn>
  801580:	000d883a 	mov	r6,zero
  801584:	01cff034 	movhi	r7,16320
  801588:	1009883a 	mov	r4,r2
  80158c:	180b883a 	mov	r5,r3
  801590:	1029883a 	mov	r20,r2
  801594:	1827883a 	mov	r19,r3
  801598:	08043400 	call	804340 <__muldf3>
  80159c:	1009883a 	mov	r4,r2
  8015a0:	180b883a 	mov	r5,r3
  8015a4:	080229c0 	call	80229c <floor>
  8015a8:	000d883a 	mov	r6,zero
  8015ac:	01d00834 	movhi	r7,16416
  8015b0:	1009883a 	mov	r4,r2
  8015b4:	180b883a 	mov	r5,r3
  8015b8:	08043400 	call	804340 <__muldf3>
  8015bc:	100d883a 	mov	r6,r2
  8015c0:	180f883a 	mov	r7,r3
  8015c4:	a009883a 	mov	r4,r20
  8015c8:	980b883a 	mov	r5,r19
  8015cc:	0804aec0 	call	804aec <__subdf3>
  8015d0:	180b883a 	mov	r5,r3
  8015d4:	1009883a 	mov	r4,r2
  8015d8:	1827883a 	mov	r19,r3
  8015dc:	102b883a 	mov	r21,r2
  8015e0:	08053a00 	call	8053a0 <__fixdfsi>
  8015e4:	1009883a 	mov	r4,r2
  8015e8:	1029883a 	mov	r20,r2
  8015ec:	08054200 	call	805420 <__floatsidf>
  8015f0:	980b883a 	mov	r5,r19
  8015f4:	100d883a 	mov	r6,r2
  8015f8:	180f883a 	mov	r7,r3
  8015fc:	a809883a 	mov	r4,r21
  801600:	0804aec0 	call	804aec <__subdf3>
  801604:	1025883a 	mov	r18,r2
  801608:	1027883a 	mov	r19,r2
  80160c:	1813883a 	mov	r9,r3
  801610:	0580660e 	bge	zero,r22,8017ac <__kernel_rem_pio2+0x4b0>
  801614:	88bfffc4 	addi	r2,r17,-1
  801618:	100490ba 	slli	r2,r2,2
  80161c:	d9409704 	addi	r5,sp,604
  801620:	01000604 	movi	r4,24
  801624:	2885883a 	add	r2,r5,r2
  801628:	117f7417 	ldw	r5,-560(r2)
  80162c:	2589c83a 	sub	r4,r4,r22
  801630:	054005c4 	movi	r21,23
  801634:	290dd83a 	sra	r6,r5,r4
  801638:	adabc83a 	sub	r21,r21,r22
  80163c:	3108983a 	sll	r4,r6,r4
  801640:	a1a9883a 	add	r20,r20,r6
  801644:	2909c83a 	sub	r4,r5,r4
  801648:	256bd83a 	sra	r21,r4,r21
  80164c:	113f7415 	stw	r4,-560(r2)
  801650:	05405f16 	blt	zero,r21,8017d0 <__kernel_rem_pio2+0x4d4>
  801654:	480b883a 	mov	r5,r9
  801658:	000d883a 	mov	r6,zero
  80165c:	000f883a 	mov	r7,zero
  801660:	9809883a 	mov	r4,r19
  801664:	da400015 	stw	r9,0(sp)
  801668:	08041d80 	call	8041d8 <__eqdf2>
  80166c:	da400017 	ldw	r9,0(sp)
  801670:	1001c91e 	bne	r2,zero,801d98 <__kernel_rem_pio2+0xa9c>
  801674:	d8800517 	ldw	r2,20(sp)
  801678:	8cffffc4 	addi	r19,r17,-1
  80167c:	98800a16 	blt	r19,r2,8016a8 <__kernel_rem_pio2+0x3ac>
  801680:	880490ba 	slli	r2,r17,2
  801684:	d9400417 	ldw	r5,16(sp)
  801688:	d9000b04 	addi	r4,sp,44
  80168c:	0007883a 	mov	r3,zero
  801690:	2085883a 	add	r2,r4,r2
  801694:	113fff17 	ldw	r4,-4(r2)
  801698:	10bfff04 	addi	r2,r2,-4
  80169c:	1906b03a 	or	r3,r3,r4
  8016a0:	117ffc1e 	bne	r2,r5,801694 <__kernel_rem_pio2+0x398>
  8016a4:	1800b41e 	bne	r3,zero,801978 <__kernel_rem_pio2+0x67c>
  8016a8:	d8800817 	ldw	r2,32(sp)
  8016ac:	10bf7417 	ldw	r2,-560(r2)
  8016b0:	1000ab1e 	bne	r2,zero,801960 <__kernel_rem_pio2+0x664>
  8016b4:	d8800417 	ldw	r2,16(sp)
  8016b8:	05000044 	movi	r20,1
  8016bc:	10fffe17 	ldw	r3,-8(r2)
  8016c0:	a5000044 	addi	r20,r20,1
  8016c4:	10bfff04 	addi	r2,r2,-4
  8016c8:	183ffc26 	beq	r3,zero,8016bc <__kernel_rem_pio2+0x3c0>
  8016cc:	8d05883a 	add	r2,r17,r20
  8016d0:	8d400044 	addi	r21,r17,1
  8016d4:	d8800015 	stw	r2,0(sp)
  8016d8:	d8800617 	ldw	r2,24(sp)
  8016dc:	88a7883a 	add	r19,r17,r2
  8016e0:	d8800717 	ldw	r2,28(sp)
  8016e4:	982690ba 	slli	r19,r19,2
  8016e8:	1463883a 	add	r17,r2,r17
  8016ec:	d880a217 	ldw	r2,648(sp)
  8016f0:	882290fa 	slli	r17,r17,3
  8016f4:	14e7883a 	add	r19,r2,r19
  8016f8:	d8801f04 	addi	r2,sp,124
  8016fc:	1463883a 	add	r17,r2,r17
  801700:	d8806f04 	addi	r2,sp,444
  801704:	1725883a 	add	r18,r2,fp
  801708:	99000117 	ldw	r4,4(r19)
  80170c:	08054200 	call	805420 <__floatsidf>
  801710:	1009883a 	mov	r4,r2
  801714:	88800015 	stw	r2,0(r17)
  801718:	d8800117 	ldw	r2,4(sp)
  80171c:	88c00115 	stw	r3,4(r17)
  801720:	180b883a 	mov	r5,r3
  801724:	10001e16 	blt	r2,zero,8017a0 <__kernel_rem_pio2+0x4a4>
  801728:	dd000217 	ldw	r20,8(sp)
  80172c:	882f883a 	mov	r23,r17
  801730:	002d883a 	mov	r22,zero
  801734:	0039883a 	mov	fp,zero
  801738:	00000306 	br	801748 <__kernel_rem_pio2+0x44c>
  80173c:	b9000017 	ldw	r4,0(r23)
  801740:	b9400117 	ldw	r5,4(r23)
  801744:	a5000204 	addi	r20,r20,8
  801748:	a1800017 	ldw	r6,0(r20)
  80174c:	a1c00117 	ldw	r7,4(r20)
  801750:	bdfffe04 	addi	r23,r23,-8
  801754:	08043400 	call	804340 <__muldf3>
  801758:	b009883a 	mov	r4,r22
  80175c:	e00b883a 	mov	r5,fp
  801760:	100d883a 	mov	r6,r2
  801764:	180f883a 	mov	r7,r3
  801768:	08038e80 	call	8038e8 <__adddf3>
  80176c:	102d883a 	mov	r22,r2
  801770:	1839883a 	mov	fp,r3
  801774:	a43ff11e 	bne	r20,r16,80173c <__kernel_rem_pio2+0x440>
  801778:	d8800017 	ldw	r2,0(sp)
  80177c:	95800215 	stw	r22,8(r18)
  801780:	97000315 	stw	fp,12(r18)
  801784:	ad400044 	addi	r21,r21,1
  801788:	9cc00104 	addi	r19,r19,4
  80178c:	8c400204 	addi	r17,r17,8
  801790:	94800204 	addi	r18,r18,8
  801794:	157fdc0e 	bge	r2,r21,801708 <__kernel_rem_pio2+0x40c>
  801798:	1023883a 	mov	r17,r2
  80179c:	003f4506 	br	8014b4 <__kernel_rem_pio2+0x1b8>
  8017a0:	002d883a 	mov	r22,zero
  8017a4:	0039883a 	mov	fp,zero
  8017a8:	003ff306 	br	801778 <__kernel_rem_pio2+0x47c>
  8017ac:	d8800317 	ldw	r2,12(sp)
  8017b0:	10005f1e 	bne	r2,zero,801930 <__kernel_rem_pio2+0x634>
  8017b4:	88bfffc4 	addi	r2,r17,-1
  8017b8:	100490ba 	slli	r2,r2,2
  8017bc:	d9009704 	addi	r4,sp,604
  8017c0:	2085883a 	add	r2,r4,r2
  8017c4:	157f7417 	ldw	r21,-560(r2)
  8017c8:	a82bd5fa 	srai	r21,r21,23
  8017cc:	057fa10e 	bge	zero,r21,801654 <__kernel_rem_pio2+0x358>
  8017d0:	a5000044 	addi	r20,r20,1
  8017d4:	0441a20e 	bge	zero,r17,801e60 <__kernel_rem_pio2+0xb64>
  8017d8:	da800b17 	ldw	r10,44(sp)
  8017dc:	5000511e 	bne	r10,zero,801924 <__kernel_rem_pio2+0x628>
  8017e0:	88800060 	cmpeqi	r2,r17,1
  8017e4:	1000231e 	bne	r2,zero,801874 <__kernel_rem_pio2+0x578>
  8017e8:	da800c17 	ldw	r10,48(sp)
  8017ec:	d9400c04 	addi	r5,sp,48
  8017f0:	00800044 	movi	r2,1
  8017f4:	11000044 	addi	r4,r2,1
  8017f8:	29400104 	addi	r5,r5,4
  8017fc:	5000061e 	bne	r10,zero,801818 <__kernel_rem_pio2+0x51c>
  801800:	89001c26 	beq	r17,r4,801874 <__kernel_rem_pio2+0x578>
  801804:	2a800017 	ldw	r10,0(r5)
  801808:	2005883a 	mov	r2,r4
  80180c:	11000044 	addi	r4,r2,1
  801810:	29400104 	addi	r5,r5,4
  801814:	503ffa26 	beq	r10,zero,801800 <__kernel_rem_pio2+0x504>
  801818:	100490ba 	slli	r2,r2,2
  80181c:	01404034 	movhi	r5,256
  801820:	2a95c83a 	sub	r10,r5,r10
  801824:	d9409704 	addi	r5,sp,604
  801828:	2885883a 	add	r2,r5,r2
  80182c:	12bf7415 	stw	r10,-560(r2)
  801830:	24400f0e 	bge	r4,r17,801870 <__kernel_rem_pio2+0x574>
  801834:	200890ba 	slli	r4,r4,2
  801838:	880490ba 	slli	r2,r17,2
  80183c:	d9c00b04 	addi	r7,sp,44
  801840:	290b883a 	add	r5,r5,r4
  801844:	01804034 	movhi	r6,256
  801848:	297f7417 	ldw	r5,-560(r5)
  80184c:	3909883a 	add	r4,r7,r4
  801850:	3885883a 	add	r2,r7,r2
  801854:	31bfffc4 	addi	r6,r6,-1
  801858:	00000106 	br	801860 <__kernel_rem_pio2+0x564>
  80185c:	21400017 	ldw	r5,0(r4)
  801860:	314bc83a 	sub	r5,r6,r5
  801864:	21400015 	stw	r5,0(r4)
  801868:	21000104 	addi	r4,r4,4
  80186c:	20bffb1e 	bne	r4,r2,80185c <__kernel_rem_pio2+0x560>
  801870:	02800044 	movi	r10,1
  801874:	d9000317 	ldw	r4,12(sp)
  801878:	01000d0e 	bge	zero,r4,8018b0 <__kernel_rem_pio2+0x5b4>
  80187c:	20800060 	cmpeqi	r2,r4,1
  801880:	1001331e 	bne	r2,zero,801d50 <__kernel_rem_pio2+0xa54>
  801884:	208000a0 	cmpeqi	r2,r4,2
  801888:	10000926 	beq	r2,zero,8018b0 <__kernel_rem_pio2+0x5b4>
  80188c:	88bfffc4 	addi	r2,r17,-1
  801890:	100490ba 	slli	r2,r2,2
  801894:	01401034 	movhi	r5,64
  801898:	d9009704 	addi	r4,sp,604
  80189c:	2085883a 	add	r2,r4,r2
  8018a0:	113f7417 	ldw	r4,-560(r2)
  8018a4:	297fffc4 	addi	r5,r5,-1
  8018a8:	2148703a 	and	r4,r4,r5
  8018ac:	113f7415 	stw	r4,-560(r2)
  8018b0:	a8800098 	cmpnei	r2,r21,2
  8018b4:	103f671e 	bne	r2,zero,801654 <__kernel_rem_pio2+0x358>
  8018b8:	900d883a 	mov	r6,r18
  8018bc:	180f883a 	mov	r7,r3
  8018c0:	0009883a 	mov	r4,zero
  8018c4:	014ffc34 	movhi	r5,16368
  8018c8:	da800015 	stw	r10,0(sp)
  8018cc:	0804aec0 	call	804aec <__subdf3>
  8018d0:	da800017 	ldw	r10,0(sp)
  8018d4:	1027883a 	mov	r19,r2
  8018d8:	1813883a 	mov	r9,r3
  8018dc:	503f5d26 	beq	r10,zero,801654 <__kernel_rem_pio2+0x358>
  8018e0:	d9800317 	ldw	r6,12(sp)
  8018e4:	0009883a 	mov	r4,zero
  8018e8:	014ffc34 	movhi	r5,16368
  8018ec:	d8c00015 	stw	r3,0(sp)
  8018f0:	08024800 	call	802480 <scalbn>
  8018f4:	da400017 	ldw	r9,0(sp)
  8018f8:	9809883a 	mov	r4,r19
  8018fc:	100d883a 	mov	r6,r2
  801900:	480b883a 	mov	r5,r9
  801904:	180f883a 	mov	r7,r3
  801908:	0804aec0 	call	804aec <__subdf3>
  80190c:	1027883a 	mov	r19,r2
  801910:	1813883a 	mov	r9,r3
  801914:	003f4f06 	br	801654 <__kernel_rem_pio2+0x358>
  801918:	0005883a 	mov	r2,zero
  80191c:	0007883a 	mov	r3,zero
  801920:	003ea806 	br	8013c4 <__kernel_rem_pio2+0xc8>
  801924:	01000044 	movi	r4,1
  801928:	0005883a 	mov	r2,zero
  80192c:	003fba06 	br	801818 <__kernel_rem_pio2+0x51c>
  801930:	180b883a 	mov	r5,r3
  801934:	000d883a 	mov	r6,zero
  801938:	01cff834 	movhi	r7,16352
  80193c:	9009883a 	mov	r4,r18
  801940:	d8c00a15 	stw	r3,40(sp)
  801944:	d8c00015 	stw	r3,0(sp)
  801948:	08042580 	call	804258 <__gedf2>
  80194c:	da400017 	ldw	r9,0(sp)
  801950:	d8c00a17 	ldw	r3,40(sp)
  801954:	1001050e 	bge	r2,zero,801d6c <__kernel_rem_pio2+0xa70>
  801958:	002b883a 	mov	r21,zero
  80195c:	003f3d06 	br	801654 <__kernel_rem_pio2+0x358>
  801960:	8d400044 	addi	r21,r17,1
  801964:	dd400015 	stw	r21,0(sp)
  801968:	003f5b06 	br	8016d8 <__kernel_rem_pio2+0x3dc>
  80196c:	0039883a 	mov	fp,zero
  801970:	002b883a 	mov	r21,zero
  801974:	003eba06 	br	801460 <__kernel_rem_pio2+0x164>
  801978:	d8c00317 	ldw	r3,12(sp)
  80197c:	980490ba 	slli	r2,r19,2
  801980:	dd400215 	stw	r21,8(sp)
  801984:	193ffa04 	addi	r4,r3,-24
  801988:	d8c09704 	addi	r3,sp,604
  80198c:	1887883a 	add	r3,r3,r2
  801990:	18ff7417 	ldw	r3,-560(r3)
  801994:	d9000315 	stw	r4,12(sp)
  801998:	1800091e 	bne	r3,zero,8019c0 <__kernel_rem_pio2+0x6c4>
  80199c:	d8c00b04 	addi	r3,sp,44
  8019a0:	1885883a 	add	r2,r3,r2
  8019a4:	2007883a 	mov	r3,r4
  8019a8:	113fff17 	ldw	r4,-4(r2)
  8019ac:	9cffffc4 	addi	r19,r19,-1
  8019b0:	10bfff04 	addi	r2,r2,-4
  8019b4:	18fffa04 	addi	r3,r3,-24
  8019b8:	203ffb26 	beq	r4,zero,8019a8 <__kernel_rem_pio2+0x6ac>
  8019bc:	d8c00315 	stw	r3,12(sp)
  8019c0:	d9800317 	ldw	r6,12(sp)
  8019c4:	0009883a 	mov	r4,zero
  8019c8:	014ffc34 	movhi	r5,16368
  8019cc:	08024800 	call	802480 <scalbn>
  8019d0:	1021883a 	mov	r16,r2
  8019d4:	1823883a 	mov	r17,r3
  8019d8:	98016c16 	blt	r19,zero,801f8c <__kernel_rem_pio2+0xc90>
  8019dc:	980490fa 	slli	r2,r19,3
  8019e0:	982c90ba 	slli	r22,r19,2
  8019e4:	d8c06f04 	addi	r3,sp,444
  8019e8:	18b9883a 	add	fp,r3,r2
  8019ec:	d8800315 	stw	r2,12(sp)
  8019f0:	d8800b04 	addi	r2,sp,44
  8019f4:	df000115 	stw	fp,4(sp)
  8019f8:	15ad883a 	add	r22,r2,r22
  8019fc:	b1000017 	ldw	r4,0(r22)
  801a00:	e73ffe04 	addi	fp,fp,-8
  801a04:	08054200 	call	805420 <__floatsidf>
  801a08:	800d883a 	mov	r6,r16
  801a0c:	880f883a 	mov	r7,r17
  801a10:	1009883a 	mov	r4,r2
  801a14:	180b883a 	mov	r5,r3
  801a18:	08043400 	call	804340 <__muldf3>
  801a1c:	8009883a 	mov	r4,r16
  801a20:	880b883a 	mov	r5,r17
  801a24:	000d883a 	mov	r6,zero
  801a28:	01cf9c34 	movhi	r7,15984
  801a2c:	e0800215 	stw	r2,8(fp)
  801a30:	e0c00315 	stw	r3,12(fp)
  801a34:	08043400 	call	804340 <__muldf3>
  801a38:	b009883a 	mov	r4,r22
  801a3c:	1021883a 	mov	r16,r2
  801a40:	d8800b04 	addi	r2,sp,44
  801a44:	1823883a 	mov	r17,r3
  801a48:	b5bfff04 	addi	r22,r22,-4
  801a4c:	113feb1e 	bne	r2,r4,8019fc <__kernel_rem_pio2+0x700>
  801a50:	05cffe74 	movhi	r23,16377
  801a54:	dc800517 	ldw	r18,20(sp)
  801a58:	bdc87ec4 	addi	r23,r23,8699
  801a5c:	dd800117 	ldw	r22,4(sp)
  801a60:	d8804704 	addi	r2,sp,284
  801a64:	dd000415 	stw	r20,16(sp)
  801a68:	dcc00015 	stw	r19,0(sp)
  801a6c:	ddc00115 	stw	r23,4(sp)
  801a70:	0021883a 	mov	r16,zero
  801a74:	102b883a 	mov	r21,r2
  801a78:	90002316 	blt	r18,zero,801b08 <__kernel_rem_pio2+0x80c>
  801a7c:	04c02074 	movhi	r19,129
  801a80:	d9400117 	ldw	r5,4(sp)
  801a84:	9ccf1404 	addi	r19,r19,15440
  801a88:	b02f883a 	mov	r23,r22
  801a8c:	01100034 	movhi	r4,16384
  801a90:	0039883a 	mov	fp,zero
  801a94:	0023883a 	mov	r17,zero
  801a98:	0029883a 	mov	r20,zero
  801a9c:	00000506 	br	801ab4 <__kernel_rem_pio2+0x7b8>
  801aa0:	9cc00204 	addi	r19,r19,8
  801aa4:	bdc00204 	addi	r23,r23,8
  801aa8:	85000e16 	blt	r16,r20,801ae4 <__kernel_rem_pio2+0x7e8>
  801aac:	99000017 	ldw	r4,0(r19)
  801ab0:	99400117 	ldw	r5,4(r19)
  801ab4:	b9800017 	ldw	r6,0(r23)
  801ab8:	b9c00117 	ldw	r7,4(r23)
  801abc:	a5000044 	addi	r20,r20,1
  801ac0:	08043400 	call	804340 <__muldf3>
  801ac4:	e009883a 	mov	r4,fp
  801ac8:	880b883a 	mov	r5,r17
  801acc:	100d883a 	mov	r6,r2
  801ad0:	180f883a 	mov	r7,r3
  801ad4:	08038e80 	call	8038e8 <__adddf3>
  801ad8:	1039883a 	mov	fp,r2
  801adc:	1823883a 	mov	r17,r3
  801ae0:	953fef0e 	bge	r18,r20,801aa0 <__kernel_rem_pio2+0x7a4>
  801ae4:	d8c00017 	ldw	r3,0(sp)
  801ae8:	af000015 	stw	fp,0(r21)
  801aec:	ac400115 	stw	r17,4(r21)
  801af0:	80800044 	addi	r2,r16,1
  801af4:	ad400204 	addi	r21,r21,8
  801af8:	b5bffe04 	addi	r22,r22,-8
  801afc:	1c000526 	beq	r3,r16,801b14 <__kernel_rem_pio2+0x818>
  801b00:	1021883a 	mov	r16,r2
  801b04:	903fdd0e 	bge	r18,zero,801a7c <__kernel_rem_pio2+0x780>
  801b08:	0039883a 	mov	fp,zero
  801b0c:	0023883a 	mov	r17,zero
  801b10:	003ff406 	br	801ae4 <__kernel_rem_pio2+0x7e8>
  801b14:	d880a117 	ldw	r2,644(sp)
  801b18:	dd000417 	ldw	r20,16(sp)
  801b1c:	dcc00017 	ldw	r19,0(sp)
  801b20:	108000c8 	cmpgei	r2,r2,3
  801b24:	1000241e 	bne	r2,zero,801bb8 <__kernel_rem_pio2+0x8bc>
  801b28:	d880a117 	ldw	r2,644(sp)
  801b2c:	0080ce16 	blt	zero,r2,801e68 <__kernel_rem_pio2+0xb6c>
  801b30:	1000141e 	bne	r2,zero,801b84 <__kernel_rem_pio2+0x888>
  801b34:	d8c00317 	ldw	r3,12(sp)
  801b38:	d8804704 	addi	r2,sp,284
  801b3c:	0009883a 	mov	r4,zero
  801b40:	10eb883a 	add	r21,r2,r3
  801b44:	000b883a 	mov	r5,zero
  801b48:	a9800017 	ldw	r6,0(r21)
  801b4c:	a9c00117 	ldw	r7,4(r21)
  801b50:	08038e80 	call	8038e8 <__adddf3>
  801b54:	a80d883a 	mov	r6,r21
  801b58:	1009883a 	mov	r4,r2
  801b5c:	d8804704 	addi	r2,sp,284
  801b60:	180b883a 	mov	r5,r3
  801b64:	ad7ffe04 	addi	r21,r21,-8
  801b68:	11bff71e 	bne	r2,r6,801b48 <__kernel_rem_pio2+0x84c>
  801b6c:	d8800217 	ldw	r2,8(sp)
  801b70:	10000126 	beq	r2,zero,801b78 <__kernel_rem_pio2+0x87c>
  801b74:	2960003c 	xorhi	r5,r5,32768
  801b78:	d8800917 	ldw	r2,36(sp)
  801b7c:	11000015 	stw	r4,0(r2)
  801b80:	11400115 	stw	r5,4(r2)
  801b84:	a08001cc 	andi	r2,r20,7
  801b88:	dfc0a017 	ldw	ra,640(sp)
  801b8c:	df009f17 	ldw	fp,636(sp)
  801b90:	ddc09e17 	ldw	r23,632(sp)
  801b94:	dd809d17 	ldw	r22,628(sp)
  801b98:	dd409c17 	ldw	r21,624(sp)
  801b9c:	dd009b17 	ldw	r20,620(sp)
  801ba0:	dcc09a17 	ldw	r19,616(sp)
  801ba4:	dc809917 	ldw	r18,612(sp)
  801ba8:	dc409817 	ldw	r17,608(sp)
  801bac:	dc009717 	ldw	r16,604(sp)
  801bb0:	dec0a104 	addi	sp,sp,644
  801bb4:	f800283a 	ret
  801bb8:	d880a117 	ldw	r2,644(sp)
  801bbc:	108000e0 	cmpeqi	r2,r2,3
  801bc0:	103ff026 	beq	r2,zero,801b84 <__kernel_rem_pio2+0x888>
  801bc4:	9800fd26 	beq	r19,zero,801fbc <__kernel_rem_pio2+0xcc0>
  801bc8:	d8c00317 	ldw	r3,12(sp)
  801bcc:	d8809704 	addi	r2,sp,604
  801bd0:	10c5883a 	add	r2,r2,r3
  801bd4:	14bfb017 	ldw	r18,-320(r2)
  801bd8:	147fb117 	ldw	r17,-316(r2)
  801bdc:	d8804704 	addi	r2,sp,284
  801be0:	10e1883a 	add	r16,r2,r3
  801be4:	85bffe17 	ldw	r22,-8(r16)
  801be8:	857fff17 	ldw	r21,-4(r16)
  801bec:	9009883a 	mov	r4,r18
  801bf0:	880b883a 	mov	r5,r17
  801bf4:	b00d883a 	mov	r6,r22
  801bf8:	a80f883a 	mov	r7,r21
  801bfc:	08038e80 	call	8038e8 <__adddf3>
  801c00:	100d883a 	mov	r6,r2
  801c04:	180f883a 	mov	r7,r3
  801c08:	b009883a 	mov	r4,r22
  801c0c:	a80b883a 	mov	r5,r21
  801c10:	9039883a 	mov	fp,r18
  801c14:	882f883a 	mov	r23,r17
  801c18:	1025883a 	mov	r18,r2
  801c1c:	1823883a 	mov	r17,r3
  801c20:	0804aec0 	call	804aec <__subdf3>
  801c24:	e00d883a 	mov	r6,fp
  801c28:	b80f883a 	mov	r7,r23
  801c2c:	1009883a 	mov	r4,r2
  801c30:	180b883a 	mov	r5,r3
  801c34:	08038e80 	call	8038e8 <__adddf3>
  801c38:	80800015 	stw	r2,0(r16)
  801c3c:	80c00115 	stw	r3,4(r16)
  801c40:	84bffe15 	stw	r18,-8(r16)
  801c44:	847fff15 	stw	r17,-4(r16)
  801c48:	d8804704 	addi	r2,sp,284
  801c4c:	843ffe04 	addi	r16,r16,-8
  801c50:	143fe41e 	bne	r2,r16,801be4 <__kernel_rem_pio2+0x8e8>
  801c54:	9cc00088 	cmpgei	r19,r19,2
  801c58:	9800d826 	beq	r19,zero,801fbc <__kernel_rem_pio2+0xcc0>
  801c5c:	d8c00317 	ldw	r3,12(sp)
  801c60:	d8809704 	addi	r2,sp,604
  801c64:	dc404904 	addi	r17,sp,292
  801c68:	10c5883a 	add	r2,r2,r3
  801c6c:	14ffb017 	ldw	r19,-320(r2)
  801c70:	14bfb117 	ldw	r18,-316(r2)
  801c74:	d8804704 	addi	r2,sp,284
  801c78:	10eb883a 	add	r21,r2,r3
  801c7c:	a821883a 	mov	r16,r21
  801c80:	dd000015 	stw	r20,0(sp)
  801c84:	85fffe17 	ldw	r23,-8(r16)
  801c88:	85bfff17 	ldw	r22,-4(r16)
  801c8c:	9809883a 	mov	r4,r19
  801c90:	900b883a 	mov	r5,r18
  801c94:	b80d883a 	mov	r6,r23
  801c98:	b00f883a 	mov	r7,r22
  801c9c:	08038e80 	call	8038e8 <__adddf3>
  801ca0:	100d883a 	mov	r6,r2
  801ca4:	180f883a 	mov	r7,r3
  801ca8:	b809883a 	mov	r4,r23
  801cac:	b00b883a 	mov	r5,r22
  801cb0:	9829883a 	mov	r20,r19
  801cb4:	9039883a 	mov	fp,r18
  801cb8:	1027883a 	mov	r19,r2
  801cbc:	1825883a 	mov	r18,r3
  801cc0:	0804aec0 	call	804aec <__subdf3>
  801cc4:	a00d883a 	mov	r6,r20
  801cc8:	e00f883a 	mov	r7,fp
  801ccc:	1009883a 	mov	r4,r2
  801cd0:	180b883a 	mov	r5,r3
  801cd4:	08038e80 	call	8038e8 <__adddf3>
  801cd8:	80800015 	stw	r2,0(r16)
  801cdc:	80c00115 	stw	r3,4(r16)
  801ce0:	84fffe15 	stw	r19,-8(r16)
  801ce4:	84bfff15 	stw	r18,-4(r16)
  801ce8:	843ffe04 	addi	r16,r16,-8
  801cec:	8c3fe51e 	bne	r17,r16,801c84 <__kernel_rem_pio2+0x988>
  801cf0:	dd000017 	ldw	r20,0(sp)
  801cf4:	0009883a 	mov	r4,zero
  801cf8:	000b883a 	mov	r5,zero
  801cfc:	a9800017 	ldw	r6,0(r21)
  801d00:	a9c00117 	ldw	r7,4(r21)
  801d04:	ad7ffe04 	addi	r21,r21,-8
  801d08:	08038e80 	call	8038e8 <__adddf3>
  801d0c:	1009883a 	mov	r4,r2
  801d10:	180b883a 	mov	r5,r3
  801d14:	8d7ff91e 	bne	r17,r21,801cfc <__kernel_rem_pio2+0xa00>
  801d18:	da000217 	ldw	r8,8(sp)
  801d1c:	d9c04717 	ldw	r7,284(sp)
  801d20:	d8c04817 	ldw	r3,288(sp)
  801d24:	d9804917 	ldw	r6,292(sp)
  801d28:	d8804a17 	ldw	r2,296(sp)
  801d2c:	4000861e 	bne	r8,zero,801f48 <__kernel_rem_pio2+0xc4c>
  801d30:	da000917 	ldw	r8,36(sp)
  801d34:	41c00015 	stw	r7,0(r8)
  801d38:	40c00115 	stw	r3,4(r8)
  801d3c:	41800215 	stw	r6,8(r8)
  801d40:	40800315 	stw	r2,12(r8)
  801d44:	41000415 	stw	r4,16(r8)
  801d48:	41400515 	stw	r5,20(r8)
  801d4c:	003f8d06 	br	801b84 <__kernel_rem_pio2+0x888>
  801d50:	88bfffc4 	addi	r2,r17,-1
  801d54:	100490ba 	slli	r2,r2,2
  801d58:	01402034 	movhi	r5,128
  801d5c:	003ece06 	br	801898 <__kernel_rem_pio2+0x59c>
  801d60:	00fffa04 	movi	r3,-24
  801d64:	d8000615 	stw	zero,24(sp)
  801d68:	003d8506 	br	801380 <__kernel_rem_pio2+0x84>
  801d6c:	a5000044 	addi	r20,r20,1
  801d70:	05400084 	movi	r21,2
  801d74:	047e9816 	blt	zero,r17,8017d8 <__kernel_rem_pio2+0x4dc>
  801d78:	480f883a 	mov	r7,r9
  801d7c:	900d883a 	mov	r6,r18
  801d80:	0009883a 	mov	r4,zero
  801d84:	014ffc34 	movhi	r5,16368
  801d88:	0804aec0 	call	804aec <__subdf3>
  801d8c:	1027883a 	mov	r19,r2
  801d90:	1813883a 	mov	r9,r3
  801d94:	003e2f06 	br	801654 <__kernel_rem_pio2+0x358>
  801d98:	ddc00317 	ldw	r23,12(sp)
  801d9c:	9809883a 	mov	r4,r19
  801da0:	480b883a 	mov	r5,r9
  801da4:	05cdc83a 	sub	r6,zero,r23
  801da8:	dd400215 	stw	r21,8(sp)
  801dac:	08024800 	call	802480 <scalbn>
  801db0:	000d883a 	mov	r6,zero
  801db4:	01d05c34 	movhi	r7,16752
  801db8:	1009883a 	mov	r4,r2
  801dbc:	180b883a 	mov	r5,r3
  801dc0:	1025883a 	mov	r18,r2
  801dc4:	1821883a 	mov	r16,r3
  801dc8:	08042580 	call	804258 <__gedf2>
  801dcc:	10005516 	blt	r2,zero,801f24 <__kernel_rem_pio2+0xc28>
  801dd0:	000d883a 	mov	r6,zero
  801dd4:	01cf9c34 	movhi	r7,15984
  801dd8:	9009883a 	mov	r4,r18
  801ddc:	800b883a 	mov	r5,r16
  801de0:	08043400 	call	804340 <__muldf3>
  801de4:	180b883a 	mov	r5,r3
  801de8:	1009883a 	mov	r4,r2
  801dec:	882c90ba 	slli	r22,r17,2
  801df0:	08053a00 	call	8053a0 <__fixdfsi>
  801df4:	1009883a 	mov	r4,r2
  801df8:	102b883a 	mov	r21,r2
  801dfc:	d8809704 	addi	r2,sp,604
  801e00:	15ad883a 	add	r22,r2,r22
  801e04:	08054200 	call	805420 <__floatsidf>
  801e08:	000d883a 	mov	r6,zero
  801e0c:	01d05c34 	movhi	r7,16752
  801e10:	1009883a 	mov	r4,r2
  801e14:	180b883a 	mov	r5,r3
  801e18:	08043400 	call	804340 <__muldf3>
  801e1c:	100d883a 	mov	r6,r2
  801e20:	180f883a 	mov	r7,r3
  801e24:	9009883a 	mov	r4,r18
  801e28:	800b883a 	mov	r5,r16
  801e2c:	0804aec0 	call	804aec <__subdf3>
  801e30:	180b883a 	mov	r5,r3
  801e34:	1009883a 	mov	r4,r2
  801e38:	08053a00 	call	8053a0 <__fixdfsi>
  801e3c:	8cc00044 	addi	r19,r17,1
  801e40:	980690ba 	slli	r3,r19,2
  801e44:	b0bf7415 	stw	r2,-560(r22)
  801e48:	b8800604 	addi	r2,r23,24
  801e4c:	d8800315 	stw	r2,12(sp)
  801e50:	d8809704 	addi	r2,sp,604
  801e54:	10c7883a 	add	r3,r2,r3
  801e58:	1d7f7415 	stw	r21,-560(r3)
  801e5c:	003ed806 	br	8019c0 <__kernel_rem_pio2+0x6c4>
  801e60:	0015883a 	mov	r10,zero
  801e64:	003e8306 	br	801874 <__kernel_rem_pio2+0x578>
  801e68:	d8c00317 	ldw	r3,12(sp)
  801e6c:	d8804704 	addi	r2,sp,284
  801e70:	10eb883a 	add	r21,r2,r3
  801e74:	0005883a 	mov	r2,zero
  801e78:	0007883a 	mov	r3,zero
  801e7c:	1009883a 	mov	r4,r2
  801e80:	180b883a 	mov	r5,r3
  801e84:	a9800017 	ldw	r6,0(r21)
  801e88:	a9c00117 	ldw	r7,4(r21)
  801e8c:	08038e80 	call	8038e8 <__adddf3>
  801e90:	a80d883a 	mov	r6,r21
  801e94:	1009883a 	mov	r4,r2
  801e98:	d8804704 	addi	r2,sp,284
  801e9c:	180b883a 	mov	r5,r3
  801ea0:	ad7ffe04 	addi	r21,r21,-8
  801ea4:	11bff71e 	bne	r2,r6,801e84 <__kernel_rem_pio2+0xb88>
  801ea8:	2005883a 	mov	r2,r4
  801eac:	d9000217 	ldw	r4,8(sp)
  801eb0:	2000291e 	bne	r4,zero,801f58 <__kernel_rem_pio2+0xc5c>
  801eb4:	d9800917 	ldw	r6,36(sp)
  801eb8:	d9004717 	ldw	r4,284(sp)
  801ebc:	d9404817 	ldw	r5,288(sp)
  801ec0:	30800015 	stw	r2,0(r6)
  801ec4:	30c00115 	stw	r3,4(r6)
  801ec8:	180f883a 	mov	r7,r3
  801ecc:	100d883a 	mov	r6,r2
  801ed0:	0804aec0 	call	804aec <__subdf3>
  801ed4:	1009883a 	mov	r4,r2
  801ed8:	180b883a 	mov	r5,r3
  801edc:	04c00d0e 	bge	zero,r19,801f14 <__kernel_rem_pio2+0xc18>
  801ee0:	dc004904 	addi	r16,sp,292
  801ee4:	04400044 	movi	r17,1
  801ee8:	81800017 	ldw	r6,0(r16)
  801eec:	81c00117 	ldw	r7,4(r16)
  801ef0:	8c400044 	addi	r17,r17,1
  801ef4:	84000204 	addi	r16,r16,8
  801ef8:	08038e80 	call	8038e8 <__adddf3>
  801efc:	1009883a 	mov	r4,r2
  801f00:	180b883a 	mov	r5,r3
  801f04:	9c7ff80e 	bge	r19,r17,801ee8 <__kernel_rem_pio2+0xbec>
  801f08:	d8800217 	ldw	r2,8(sp)
  801f0c:	10000126 	beq	r2,zero,801f14 <__kernel_rem_pio2+0xc18>
  801f10:	2960003c 	xorhi	r5,r5,32768
  801f14:	d8800917 	ldw	r2,36(sp)
  801f18:	11000215 	stw	r4,8(r2)
  801f1c:	11400315 	stw	r5,12(r2)
  801f20:	003f1806 	br	801b84 <__kernel_rem_pio2+0x888>
  801f24:	880490ba 	slli	r2,r17,2
  801f28:	800b883a 	mov	r5,r16
  801f2c:	d8c09704 	addi	r3,sp,604
  801f30:	9009883a 	mov	r4,r18
  801f34:	18a1883a 	add	r16,r3,r2
  801f38:	08053a00 	call	8053a0 <__fixdfsi>
  801f3c:	80bf7415 	stw	r2,-560(r16)
  801f40:	8827883a 	mov	r19,r17
  801f44:	003e9e06 	br	8019c0 <__kernel_rem_pio2+0x6c4>
  801f48:	18e0003c 	xorhi	r3,r3,32768
  801f4c:	10a0003c 	xorhi	r2,r2,32768
  801f50:	2960003c 	xorhi	r5,r5,32768
  801f54:	003f7606 	br	801d30 <__kernel_rem_pio2+0xa34>
  801f58:	d9c00917 	ldw	r7,36(sp)
  801f5c:	d9004717 	ldw	r4,284(sp)
  801f60:	d9404817 	ldw	r5,288(sp)
  801f64:	19a0003c 	xorhi	r6,r3,32768
  801f68:	39800115 	stw	r6,4(r7)
  801f6c:	38800015 	stw	r2,0(r7)
  801f70:	100d883a 	mov	r6,r2
  801f74:	180f883a 	mov	r7,r3
  801f78:	0804aec0 	call	804aec <__subdf3>
  801f7c:	1009883a 	mov	r4,r2
  801f80:	180b883a 	mov	r5,r3
  801f84:	04ffd616 	blt	zero,r19,801ee0 <__kernel_rem_pio2+0xbe4>
  801f88:	003fe106 	br	801f10 <__kernel_rem_pio2+0xc14>
  801f8c:	d880a117 	ldw	r2,644(sp)
  801f90:	108000c8 	cmpgei	r2,r2,3
  801f94:	1000061e 	bne	r2,zero,801fb0 <__kernel_rem_pio2+0xcb4>
  801f98:	d880a117 	ldw	r2,644(sp)
  801f9c:	00800a16 	blt	zero,r2,801fc8 <__kernel_rem_pio2+0xccc>
  801fa0:	103ef81e 	bne	r2,zero,801b84 <__kernel_rem_pio2+0x888>
  801fa4:	0009883a 	mov	r4,zero
  801fa8:	000b883a 	mov	r5,zero
  801fac:	003eef06 	br	801b6c <__kernel_rem_pio2+0x870>
  801fb0:	d880a117 	ldw	r2,644(sp)
  801fb4:	108000e0 	cmpeqi	r2,r2,3
  801fb8:	103ef226 	beq	r2,zero,801b84 <__kernel_rem_pio2+0x888>
  801fbc:	0009883a 	mov	r4,zero
  801fc0:	000b883a 	mov	r5,zero
  801fc4:	003f5406 	br	801d18 <__kernel_rem_pio2+0xa1c>
  801fc8:	0005883a 	mov	r2,zero
  801fcc:	0007883a 	mov	r3,zero
  801fd0:	003fb606 	br	801eac <__kernel_rem_pio2+0xbb0>

00801fd4 <__kernel_sin>:
  801fd4:	02200034 	movhi	r8,32768
  801fd8:	defff304 	addi	sp,sp,-52
  801fdc:	423fffc4 	addi	r8,r8,-1
  801fe0:	dd400815 	stw	r21,32(sp)
  801fe4:	dd000715 	stw	r20,28(sp)
  801fe8:	dc400415 	stw	r17,16(sp)
  801fec:	dc000315 	stw	r16,12(sp)
  801ff0:	dfc00c15 	stw	ra,48(sp)
  801ff4:	df000b15 	stw	fp,44(sp)
  801ff8:	ddc00a15 	stw	r23,40(sp)
  801ffc:	dd800915 	stw	r22,36(sp)
  802000:	dcc00615 	stw	r19,24(sp)
  802004:	dc800515 	stw	r18,20(sp)
  802008:	2a10703a 	and	r8,r5,r8
  80200c:	00cf9034 	movhi	r3,15936
  802010:	2821883a 	mov	r16,r5
  802014:	2023883a 	mov	r17,r4
  802018:	302b883a 	mov	r21,r6
  80201c:	3829883a 	mov	r20,r7
  802020:	40c0020e 	bge	r8,r3,80202c <__kernel_sin+0x58>
  802024:	08053a00 	call	8053a0 <__fixdfsi>
  802028:	10009926 	beq	r2,zero,802290 <__kernel_sin+0x2bc>
  80202c:	880d883a 	mov	r6,r17
  802030:	800f883a 	mov	r7,r16
  802034:	8809883a 	mov	r4,r17
  802038:	800b883a 	mov	r5,r16
  80203c:	08043400 	call	804340 <__muldf3>
  802040:	100d883a 	mov	r6,r2
  802044:	180f883a 	mov	r7,r3
  802048:	8809883a 	mov	r4,r17
  80204c:	800b883a 	mov	r5,r16
  802050:	1027883a 	mov	r19,r2
  802054:	1825883a 	mov	r18,r3
  802058:	08043400 	call	804340 <__muldf3>
  80205c:	0196b434 	movhi	r6,23248
  802060:	01cf79b4 	movhi	r7,15846
  802064:	31b55f04 	addi	r6,r6,-10884
  802068:	39f64e84 	addi	r7,r7,-9926
  80206c:	9809883a 	mov	r4,r19
  802070:	900b883a 	mov	r5,r18
  802074:	102f883a 	mov	r23,r2
  802078:	182d883a 	mov	r22,r3
  80207c:	08043400 	call	804340 <__muldf3>
  802080:	01a28b34 	movhi	r6,35372
  802084:	01cf96f4 	movhi	r7,15963
  802088:	31a73ac4 	addi	r6,r6,-25365
  80208c:	39f97984 	addi	r7,r7,-6682
  802090:	1009883a 	mov	r4,r2
  802094:	180b883a 	mov	r5,r3
  802098:	0804aec0 	call	804aec <__subdf3>
  80209c:	980d883a 	mov	r6,r19
  8020a0:	900f883a 	mov	r7,r18
  8020a4:	1009883a 	mov	r4,r2
  8020a8:	180b883a 	mov	r5,r3
  8020ac:	08043400 	call	804340 <__muldf3>
  8020b0:	0195ecb4 	movhi	r6,22450
  8020b4:	01cfb1f4 	movhi	r7,16071
  8020b8:	31bf9f44 	addi	r6,r6,-387
  8020bc:	39c778c4 	addi	r7,r7,7651
  8020c0:	1009883a 	mov	r4,r2
  8020c4:	180b883a 	mov	r5,r3
  8020c8:	08038e80 	call	8038e8 <__adddf3>
  8020cc:	980d883a 	mov	r6,r19
  8020d0:	900f883a 	mov	r7,r18
  8020d4:	1009883a 	mov	r4,r2
  8020d8:	180b883a 	mov	r5,r3
  8020dc:	08043400 	call	804340 <__muldf3>
  8020e0:	01867074 	movhi	r6,6593
  8020e4:	01cfcab4 	movhi	r7,16170
  8020e8:	31987544 	addi	r6,r6,25045
  8020ec:	39c06804 	addi	r7,r7,416
  8020f0:	1009883a 	mov	r4,r2
  8020f4:	180b883a 	mov	r5,r3
  8020f8:	0804aec0 	call	804aec <__subdf3>
  8020fc:	980d883a 	mov	r6,r19
  802100:	900f883a 	mov	r7,r18
  802104:	1009883a 	mov	r4,r2
  802108:	180b883a 	mov	r5,r3
  80210c:	08043400 	call	804340 <__muldf3>
  802110:	01844474 	movhi	r6,4369
  802114:	01cfe074 	movhi	r7,16257
  802118:	31be2984 	addi	r6,r6,-1882
  80211c:	39c44444 	addi	r7,r7,4369
  802120:	1009883a 	mov	r4,r2
  802124:	180b883a 	mov	r5,r3
  802128:	08038e80 	call	8038e8 <__adddf3>
  80212c:	1011883a 	mov	r8,r2
  802130:	d8800d17 	ldw	r2,52(sp)
  802134:	1839883a 	mov	fp,r3
  802138:	10003e26 	beq	r2,zero,802234 <__kernel_sin+0x260>
  80213c:	000d883a 	mov	r6,zero
  802140:	01cff834 	movhi	r7,16352
  802144:	a809883a 	mov	r4,r21
  802148:	a00b883a 	mov	r5,r20
  80214c:	da000215 	stw	r8,8(sp)
  802150:	08043400 	call	804340 <__muldf3>
  802154:	da000217 	ldw	r8,8(sp)
  802158:	e00f883a 	mov	r7,fp
  80215c:	b809883a 	mov	r4,r23
  802160:	400d883a 	mov	r6,r8
  802164:	b00b883a 	mov	r5,r22
  802168:	d8800115 	stw	r2,4(sp)
  80216c:	d8c00015 	stw	r3,0(sp)
  802170:	08043400 	call	804340 <__muldf3>
  802174:	da800117 	ldw	r10,4(sp)
  802178:	da400017 	ldw	r9,0(sp)
  80217c:	100d883a 	mov	r6,r2
  802180:	5009883a 	mov	r4,r10
  802184:	480b883a 	mov	r5,r9
  802188:	180f883a 	mov	r7,r3
  80218c:	0804aec0 	call	804aec <__subdf3>
  802190:	980d883a 	mov	r6,r19
  802194:	900f883a 	mov	r7,r18
  802198:	1009883a 	mov	r4,r2
  80219c:	180b883a 	mov	r5,r3
  8021a0:	08043400 	call	804340 <__muldf3>
  8021a4:	a80d883a 	mov	r6,r21
  8021a8:	a00f883a 	mov	r7,r20
  8021ac:	1009883a 	mov	r4,r2
  8021b0:	180b883a 	mov	r5,r3
  8021b4:	0804aec0 	call	804aec <__subdf3>
  8021b8:	01955574 	movhi	r6,21845
  8021bc:	01cff174 	movhi	r7,16325
  8021c0:	31955244 	addi	r6,r6,21833
  8021c4:	39d55544 	addi	r7,r7,21845
  8021c8:	b809883a 	mov	r4,r23
  8021cc:	b00b883a 	mov	r5,r22
  8021d0:	1027883a 	mov	r19,r2
  8021d4:	1825883a 	mov	r18,r3
  8021d8:	08043400 	call	804340 <__muldf3>
  8021dc:	100d883a 	mov	r6,r2
  8021e0:	180f883a 	mov	r7,r3
  8021e4:	9809883a 	mov	r4,r19
  8021e8:	900b883a 	mov	r5,r18
  8021ec:	08038e80 	call	8038e8 <__adddf3>
  8021f0:	100d883a 	mov	r6,r2
  8021f4:	180f883a 	mov	r7,r3
  8021f8:	8809883a 	mov	r4,r17
  8021fc:	800b883a 	mov	r5,r16
  802200:	0804aec0 	call	804aec <__subdf3>
  802204:	dfc00c17 	ldw	ra,48(sp)
  802208:	df000b17 	ldw	fp,44(sp)
  80220c:	ddc00a17 	ldw	r23,40(sp)
  802210:	dd800917 	ldw	r22,36(sp)
  802214:	dd400817 	ldw	r21,32(sp)
  802218:	dd000717 	ldw	r20,28(sp)
  80221c:	dcc00617 	ldw	r19,24(sp)
  802220:	dc800517 	ldw	r18,20(sp)
  802224:	dc400417 	ldw	r17,16(sp)
  802228:	dc000317 	ldw	r16,12(sp)
  80222c:	dec00d04 	addi	sp,sp,52
  802230:	f800283a 	ret
  802234:	400d883a 	mov	r6,r8
  802238:	9809883a 	mov	r4,r19
  80223c:	900b883a 	mov	r5,r18
  802240:	180f883a 	mov	r7,r3
  802244:	08043400 	call	804340 <__muldf3>
  802248:	01955574 	movhi	r6,21845
  80224c:	01cff174 	movhi	r7,16325
  802250:	31955244 	addi	r6,r6,21833
  802254:	39d55544 	addi	r7,r7,21845
  802258:	1009883a 	mov	r4,r2
  80225c:	180b883a 	mov	r5,r3
  802260:	0804aec0 	call	804aec <__subdf3>
  802264:	b80d883a 	mov	r6,r23
  802268:	b00f883a 	mov	r7,r22
  80226c:	1009883a 	mov	r4,r2
  802270:	180b883a 	mov	r5,r3
  802274:	08043400 	call	804340 <__muldf3>
  802278:	880d883a 	mov	r6,r17
  80227c:	800f883a 	mov	r7,r16
  802280:	1009883a 	mov	r4,r2
  802284:	180b883a 	mov	r5,r3
  802288:	08038e80 	call	8038e8 <__adddf3>
  80228c:	003fdd06 	br	802204 <__kernel_sin+0x230>
  802290:	8805883a 	mov	r2,r17
  802294:	8007883a 	mov	r3,r16
  802298:	003fda06 	br	802204 <__kernel_sin+0x230>

0080229c <floor>:
  80229c:	280fd53a 	srai	r7,r5,20
  8022a0:	defffb04 	addi	sp,sp,-20
  8022a4:	dc800215 	stw	r18,8(sp)
  8022a8:	39c1ffcc 	andi	r7,r7,2047
  8022ac:	3cbf0044 	addi	r18,r7,-1023
  8022b0:	dc400115 	stw	r17,4(sp)
  8022b4:	dc000015 	stw	r16,0(sp)
  8022b8:	dfc00415 	stw	ra,16(sp)
  8022bc:	dcc00315 	stw	r19,12(sp)
  8022c0:	90800508 	cmpgei	r2,r18,20
  8022c4:	2821883a 	mov	r16,r5
  8022c8:	200d883a 	mov	r6,r4
  8022cc:	2023883a 	mov	r17,r4
  8022d0:	10002b1e 	bne	r2,zero,802380 <floor+0xe4>
  8022d4:	90001b16 	blt	r18,zero,802344 <floor+0xa8>
  8022d8:	00800434 	movhi	r2,16
  8022dc:	10bfffc4 	addi	r2,r2,-1
  8022e0:	14a7d83a 	sra	r19,r2,r18
  8022e4:	2cc4703a 	and	r2,r5,r19
  8022e8:	1104b03a 	or	r2,r2,r4
  8022ec:	10002826 	beq	r2,zero,802390 <floor+0xf4>
  8022f0:	01a20034 	movhi	r6,34816
  8022f4:	01df8e34 	movhi	r7,32312
  8022f8:	319d6704 	addi	r6,r6,30108
  8022fc:	39f90f04 	addi	r7,r7,-7108
  802300:	08038e80 	call	8038e8 <__adddf3>
  802304:	000d883a 	mov	r6,zero
  802308:	000f883a 	mov	r7,zero
  80230c:	1009883a 	mov	r4,r2
  802310:	180b883a 	mov	r5,r3
  802314:	08042580 	call	804258 <__gedf2>
  802318:	0080070e 	bge	zero,r2,802338 <floor+0x9c>
  80231c:	8000030e 	bge	r16,zero,80232c <floor+0x90>
  802320:	00800434 	movhi	r2,16
  802324:	14a5d83a 	sra	r18,r2,r18
  802328:	9421883a 	add	r16,r18,r16
  80232c:	04c4303a 	nor	r2,zero,r19
  802330:	80a0703a 	and	r16,r16,r2
  802334:	0023883a 	mov	r17,zero
  802338:	8805883a 	mov	r2,r17
  80233c:	8007883a 	mov	r3,r16
  802340:	00001506 	br	802398 <floor+0xfc>
  802344:	01a20034 	movhi	r6,34816
  802348:	01df8e34 	movhi	r7,32312
  80234c:	319d6704 	addi	r6,r6,30108
  802350:	39f90f04 	addi	r7,r7,-7108
  802354:	08038e80 	call	8038e8 <__adddf3>
  802358:	000d883a 	mov	r6,zero
  80235c:	000f883a 	mov	r7,zero
  802360:	1009883a 	mov	r4,r2
  802364:	180b883a 	mov	r5,r3
  802368:	08042580 	call	804258 <__gedf2>
  80236c:	00bff20e 	bge	zero,r2,802338 <floor+0x9c>
  802370:	80002a16 	blt	r16,zero,80241c <floor+0x180>
  802374:	0023883a 	mov	r17,zero
  802378:	0021883a 	mov	r16,zero
  80237c:	003fee06 	br	802338 <floor+0x9c>
  802380:	90800d10 	cmplti	r2,r18,52
  802384:	10000b1e 	bne	r2,zero,8023b4 <floor+0x118>
  802388:	94810018 	cmpnei	r18,r18,1024
  80238c:	90001d26 	beq	r18,zero,802404 <floor+0x168>
  802390:	3005883a 	mov	r2,r6
  802394:	8007883a 	mov	r3,r16
  802398:	dfc00417 	ldw	ra,16(sp)
  80239c:	dcc00317 	ldw	r19,12(sp)
  8023a0:	dc800217 	ldw	r18,8(sp)
  8023a4:	dc400117 	ldw	r17,4(sp)
  8023a8:	dc000017 	ldw	r16,0(sp)
  8023ac:	dec00504 	addi	sp,sp,20
  8023b0:	f800283a 	ret
  8023b4:	39fefb44 	addi	r7,r7,-1043
  8023b8:	04ffffc4 	movi	r19,-1
  8023bc:	99e6d83a 	srl	r19,r19,r7
  8023c0:	9904703a 	and	r2,r19,r4
  8023c4:	10001226 	beq	r2,zero,802410 <floor+0x174>
  8023c8:	01a20034 	movhi	r6,34816
  8023cc:	01df8e34 	movhi	r7,32312
  8023d0:	319d6704 	addi	r6,r6,30108
  8023d4:	39f90f04 	addi	r7,r7,-7108
  8023d8:	08038e80 	call	8038e8 <__adddf3>
  8023dc:	000d883a 	mov	r6,zero
  8023e0:	000f883a 	mov	r7,zero
  8023e4:	1009883a 	mov	r4,r2
  8023e8:	180b883a 	mov	r5,r3
  8023ec:	08042580 	call	804258 <__gedf2>
  8023f0:	00bfd10e 	bge	zero,r2,802338 <floor+0x9c>
  8023f4:	80001116 	blt	r16,zero,80243c <floor+0x1a0>
  8023f8:	04ce303a 	nor	r7,zero,r19
  8023fc:	89e2703a 	and	r17,r17,r7
  802400:	003fcd06 	br	802338 <floor+0x9c>
  802404:	280f883a 	mov	r7,r5
  802408:	08038e80 	call	8038e8 <__adddf3>
  80240c:	003fe206 	br	802398 <floor+0xfc>
  802410:	2807883a 	mov	r3,r5
  802414:	2005883a 	mov	r2,r4
  802418:	003fdf06 	br	802398 <floor+0xfc>
  80241c:	00a00034 	movhi	r2,32768
  802420:	10bfffc4 	addi	r2,r2,-1
  802424:	8084703a 	and	r2,r16,r2
  802428:	1462b03a 	or	r17,r2,r17
  80242c:	88000e26 	beq	r17,zero,802468 <floor+0x1cc>
  802430:	0023883a 	mov	r17,zero
  802434:	042ffc34 	movhi	r16,49136
  802438:	003fbf06 	br	802338 <floor+0x9c>
  80243c:	90800518 	cmpnei	r2,r18,20
  802440:	10000b26 	beq	r2,zero,802470 <floor+0x1d4>
  802444:	00800d04 	movi	r2,52
  802448:	14a5c83a 	sub	r18,r2,r18
  80244c:	00800044 	movi	r2,1
  802450:	1484983a 	sll	r2,r2,r18
  802454:	1445883a 	add	r2,r2,r17
  802458:	1440072e 	bgeu	r2,r17,802478 <floor+0x1dc>
  80245c:	84000044 	addi	r16,r16,1
  802460:	1023883a 	mov	r17,r2
  802464:	003fe406 	br	8023f8 <floor+0x15c>
  802468:	0023883a 	mov	r17,zero
  80246c:	003fb206 	br	802338 <floor+0x9c>
  802470:	84000044 	addi	r16,r16,1
  802474:	003fe006 	br	8023f8 <floor+0x15c>
  802478:	1023883a 	mov	r17,r2
  80247c:	003fde06 	br	8023f8 <floor+0x15c>

00802480 <scalbn>:
  802480:	2807d53a 	srai	r3,r5,20
  802484:	defffe04 	addi	sp,sp,-8
  802488:	dc000015 	stw	r16,0(sp)
  80248c:	dfc00115 	stw	ra,4(sp)
  802490:	18c1ffcc 	andi	r3,r3,2047
  802494:	280f883a 	mov	r7,r5
  802498:	2005883a 	mov	r2,r4
  80249c:	3021883a 	mov	r16,r6
  8024a0:	1800241e 	bne	r3,zero,802534 <scalbn+0xb4>
  8024a4:	00e00034 	movhi	r3,32768
  8024a8:	18ffffc4 	addi	r3,r3,-1
  8024ac:	28c6703a 	and	r3,r5,r3
  8024b0:	1906b03a 	or	r3,r3,r4
  8024b4:	18003626 	beq	r3,zero,802590 <scalbn+0x110>
  8024b8:	000d883a 	mov	r6,zero
  8024bc:	01d0d434 	movhi	r7,17232
  8024c0:	08043400 	call	804340 <__muldf3>
  8024c4:	01bffff4 	movhi	r6,65535
  8024c8:	318f2c04 	addi	r6,r6,15536
  8024cc:	1009883a 	mov	r4,r2
  8024d0:	180f883a 	mov	r7,r3
  8024d4:	81804d16 	blt	r16,r6,80260c <scalbn+0x18c>
  8024d8:	1807d53a 	srai	r3,r3,20
  8024dc:	3811883a 	mov	r8,r7
  8024e0:	18c1ffcc 	andi	r3,r3,2047
  8024e4:	18fff284 	addi	r3,r3,-54
  8024e8:	80c7883a 	add	r3,r16,r3
  8024ec:	1901ffd0 	cmplti	r4,r3,2047
  8024f0:	20001926 	beq	r4,zero,802558 <scalbn+0xd8>
  8024f4:	00c03c16 	blt	zero,r3,8025e8 <scalbn+0x168>
  8024f8:	193ff2c8 	cmpgei	r4,r3,-53
  8024fc:	20002c1e 	bne	r4,zero,8025b0 <scalbn+0x130>
  802500:	00b0d414 	movui	r2,50000
  802504:	14001416 	blt	r2,r16,802558 <scalbn+0xd8>
  802508:	0130be74 	movhi	r4,49913
  80250c:	01406974 	movhi	r5,421
  802510:	213cd644 	addi	r4,r4,-3239
  802514:	295b87c4 	addi	r5,r5,28191
  802518:	38004616 	blt	r7,zero,802634 <scalbn+0x1b4>
  80251c:	01b0be74 	movhi	r6,49913
  802520:	01c06974 	movhi	r7,421
  802524:	31bcd644 	addi	r6,r6,-3239
  802528:	39db87c4 	addi	r7,r7,28191
  80252c:	08043400 	call	804340 <__muldf3>
  802530:	00001306 	br	802580 <scalbn+0x100>
  802534:	1981ffd8 	cmpnei	r6,r3,2047
  802538:	2811883a 	mov	r8,r5
  80253c:	303fea1e 	bne	r6,zero,8024e8 <scalbn+0x68>
  802540:	200d883a 	mov	r6,r4
  802544:	08038e80 	call	8038e8 <__adddf3>
  802548:	dfc00117 	ldw	ra,4(sp)
  80254c:	dc000017 	ldw	r16,0(sp)
  802550:	dec00204 	addi	sp,sp,8
  802554:	f800283a 	ret
  802558:	01220034 	movhi	r4,34816
  80255c:	015f8e34 	movhi	r5,32312
  802560:	211d6704 	addi	r4,r4,30108
  802564:	29790f04 	addi	r5,r5,-7108
  802568:	38000e16 	blt	r7,zero,8025a4 <scalbn+0x124>
  80256c:	01a20034 	movhi	r6,34816
  802570:	01df8e34 	movhi	r7,32312
  802574:	319d6704 	addi	r6,r6,30108
  802578:	39f90f04 	addi	r7,r7,-7108
  80257c:	08043400 	call	804340 <__muldf3>
  802580:	dfc00117 	ldw	ra,4(sp)
  802584:	dc000017 	ldw	r16,0(sp)
  802588:	dec00204 	addi	sp,sp,8
  80258c:	f800283a 	ret
  802590:	2807883a 	mov	r3,r5
  802594:	dfc00117 	ldw	ra,4(sp)
  802598:	dc000017 	ldw	r16,0(sp)
  80259c:	dec00204 	addi	sp,sp,8
  8025a0:	f800283a 	ret
  8025a4:	017f8e34 	movhi	r5,65080
  8025a8:	29790f04 	addi	r5,r5,-7108
  8025ac:	003fef06 	br	80256c <scalbn+0xec>
  8025b0:	18c00d84 	addi	r3,r3,54
  8025b4:	1806953a 	slli	r3,r3,20
  8025b8:	01600434 	movhi	r5,32784
  8025bc:	297fffc4 	addi	r5,r5,-1
  8025c0:	414a703a 	and	r5,r8,r5
  8025c4:	000d883a 	mov	r6,zero
  8025c8:	01cf2434 	movhi	r7,15504
  8025cc:	1009883a 	mov	r4,r2
  8025d0:	194ab03a 	or	r5,r3,r5
  8025d4:	08043400 	call	804340 <__muldf3>
  8025d8:	dfc00117 	ldw	ra,4(sp)
  8025dc:	dc000017 	ldw	r16,0(sp)
  8025e0:	dec00204 	addi	sp,sp,8
  8025e4:	f800283a 	ret
  8025e8:	1806953a 	slli	r3,r3,20
  8025ec:	01e00434 	movhi	r7,32784
  8025f0:	39ffffc4 	addi	r7,r7,-1
  8025f4:	41ce703a 	and	r7,r8,r7
  8025f8:	38c6b03a 	or	r3,r7,r3
  8025fc:	dfc00117 	ldw	ra,4(sp)
  802600:	dc000017 	ldw	r16,0(sp)
  802604:	dec00204 	addi	sp,sp,8
  802608:	f800283a 	ret
  80260c:	01b0be74 	movhi	r6,49913
  802610:	01c06974 	movhi	r7,421
  802614:	31bcd644 	addi	r6,r6,-3239
  802618:	39db87c4 	addi	r7,r7,28191
  80261c:	180b883a 	mov	r5,r3
  802620:	08043400 	call	804340 <__muldf3>
  802624:	dfc00117 	ldw	ra,4(sp)
  802628:	dc000017 	ldw	r16,0(sp)
  80262c:	dec00204 	addi	sp,sp,8
  802630:	f800283a 	ret
  802634:	01606974 	movhi	r5,33189
  802638:	295b87c4 	addi	r5,r5,28191
  80263c:	003fb706 	br	80251c <scalbn+0x9c>

00802640 <__divsi3>:
  802640:	20001a16 	blt	r4,zero,8026ac <__divsi3+0x6c>
  802644:	000f883a 	mov	r7,zero
  802648:	2800020e 	bge	r5,zero,802654 <__divsi3+0x14>
  80264c:	014bc83a 	sub	r5,zero,r5
  802650:	39c0005c 	xori	r7,r7,1
  802654:	200d883a 	mov	r6,r4
  802658:	00c00044 	movi	r3,1
  80265c:	2900092e 	bgeu	r5,r4,802684 <__divsi3+0x44>
  802660:	00800804 	movi	r2,32
  802664:	00c00044 	movi	r3,1
  802668:	00000106 	br	802670 <__divsi3+0x30>
  80266c:	10001226 	beq	r2,zero,8026b8 <__divsi3+0x78>
  802670:	294b883a 	add	r5,r5,r5
  802674:	10bfffc4 	addi	r2,r2,-1
  802678:	18c7883a 	add	r3,r3,r3
  80267c:	293ffb36 	bltu	r5,r4,80266c <__divsi3+0x2c>
  802680:	18000d26 	beq	r3,zero,8026b8 <__divsi3+0x78>
  802684:	0005883a 	mov	r2,zero
  802688:	31400236 	bltu	r6,r5,802694 <__divsi3+0x54>
  80268c:	314dc83a 	sub	r6,r6,r5
  802690:	10c4b03a 	or	r2,r2,r3
  802694:	1806d07a 	srli	r3,r3,1
  802698:	280ad07a 	srli	r5,r5,1
  80269c:	183ffa1e 	bne	r3,zero,802688 <__divsi3+0x48>
  8026a0:	38000126 	beq	r7,zero,8026a8 <__divsi3+0x68>
  8026a4:	0085c83a 	sub	r2,zero,r2
  8026a8:	f800283a 	ret
  8026ac:	0109c83a 	sub	r4,zero,r4
  8026b0:	01c00044 	movi	r7,1
  8026b4:	003fe406 	br	802648 <__divsi3+0x8>
  8026b8:	0005883a 	mov	r2,zero
  8026bc:	003ff806 	br	8026a0 <__divsi3+0x60>

008026c0 <__modsi3>:
  8026c0:	20001916 	blt	r4,zero,802728 <__modsi3+0x68>
  8026c4:	000f883a 	mov	r7,zero
  8026c8:	2005883a 	mov	r2,r4
  8026cc:	2800010e 	bge	r5,zero,8026d4 <__modsi3+0x14>
  8026d0:	014bc83a 	sub	r5,zero,r5
  8026d4:	00c00044 	movi	r3,1
  8026d8:	2900092e 	bgeu	r5,r4,802700 <__modsi3+0x40>
  8026dc:	01800804 	movi	r6,32
  8026e0:	00c00044 	movi	r3,1
  8026e4:	00000106 	br	8026ec <__modsi3+0x2c>
  8026e8:	30000d26 	beq	r6,zero,802720 <__modsi3+0x60>
  8026ec:	294b883a 	add	r5,r5,r5
  8026f0:	31bfffc4 	addi	r6,r6,-1
  8026f4:	18c7883a 	add	r3,r3,r3
  8026f8:	293ffb36 	bltu	r5,r4,8026e8 <__modsi3+0x28>
  8026fc:	18000826 	beq	r3,zero,802720 <__modsi3+0x60>
  802700:	1806d07a 	srli	r3,r3,1
  802704:	11400136 	bltu	r2,r5,80270c <__modsi3+0x4c>
  802708:	1145c83a 	sub	r2,r2,r5
  80270c:	280ad07a 	srli	r5,r5,1
  802710:	183ffb1e 	bne	r3,zero,802700 <__modsi3+0x40>
  802714:	38000126 	beq	r7,zero,80271c <__modsi3+0x5c>
  802718:	0085c83a 	sub	r2,zero,r2
  80271c:	f800283a 	ret
  802720:	2005883a 	mov	r2,r4
  802724:	003ffb06 	br	802714 <__modsi3+0x54>
  802728:	0109c83a 	sub	r4,zero,r4
  80272c:	01c00044 	movi	r7,1
  802730:	003fe506 	br	8026c8 <__modsi3+0x8>

00802734 <__udivsi3>:
  802734:	200d883a 	mov	r6,r4
  802738:	2900152e 	bgeu	r5,r4,802790 <__udivsi3+0x5c>
  80273c:	28001416 	blt	r5,zero,802790 <__udivsi3+0x5c>
  802740:	00800804 	movi	r2,32
  802744:	00c00044 	movi	r3,1
  802748:	00000206 	br	802754 <__udivsi3+0x20>
  80274c:	10000e26 	beq	r2,zero,802788 <__udivsi3+0x54>
  802750:	28000516 	blt	r5,zero,802768 <__udivsi3+0x34>
  802754:	294b883a 	add	r5,r5,r5
  802758:	10bfffc4 	addi	r2,r2,-1
  80275c:	18c7883a 	add	r3,r3,r3
  802760:	293ffa36 	bltu	r5,r4,80274c <__udivsi3+0x18>
  802764:	18000826 	beq	r3,zero,802788 <__udivsi3+0x54>
  802768:	0005883a 	mov	r2,zero
  80276c:	31400236 	bltu	r6,r5,802778 <__udivsi3+0x44>
  802770:	314dc83a 	sub	r6,r6,r5
  802774:	10c4b03a 	or	r2,r2,r3
  802778:	1806d07a 	srli	r3,r3,1
  80277c:	280ad07a 	srli	r5,r5,1
  802780:	183ffa1e 	bne	r3,zero,80276c <__udivsi3+0x38>
  802784:	f800283a 	ret
  802788:	0005883a 	mov	r2,zero
  80278c:	f800283a 	ret
  802790:	00c00044 	movi	r3,1
  802794:	003ff406 	br	802768 <__udivsi3+0x34>

00802798 <__umodsi3>:
  802798:	2005883a 	mov	r2,r4
  80279c:	2900132e 	bgeu	r5,r4,8027ec <__umodsi3+0x54>
  8027a0:	28001216 	blt	r5,zero,8027ec <__umodsi3+0x54>
  8027a4:	01800804 	movi	r6,32
  8027a8:	00c00044 	movi	r3,1
  8027ac:	00000206 	br	8027b8 <__umodsi3+0x20>
  8027b0:	30000c26 	beq	r6,zero,8027e4 <__umodsi3+0x4c>
  8027b4:	28000516 	blt	r5,zero,8027cc <__umodsi3+0x34>
  8027b8:	294b883a 	add	r5,r5,r5
  8027bc:	31bfffc4 	addi	r6,r6,-1
  8027c0:	18c7883a 	add	r3,r3,r3
  8027c4:	293ffa36 	bltu	r5,r4,8027b0 <__umodsi3+0x18>
  8027c8:	18000626 	beq	r3,zero,8027e4 <__umodsi3+0x4c>
  8027cc:	1806d07a 	srli	r3,r3,1
  8027d0:	11400136 	bltu	r2,r5,8027d8 <__umodsi3+0x40>
  8027d4:	1145c83a 	sub	r2,r2,r5
  8027d8:	280ad07a 	srli	r5,r5,1
  8027dc:	183ffb1e 	bne	r3,zero,8027cc <__umodsi3+0x34>
  8027e0:	f800283a 	ret
  8027e4:	2005883a 	mov	r2,r4
  8027e8:	f800283a 	ret
  8027ec:	00c00044 	movi	r3,1
  8027f0:	003ff606 	br	8027cc <__umodsi3+0x34>

008027f4 <__addsf3>:
  8027f4:	defffc04 	addi	sp,sp,-16
  8027f8:	2806d5fa 	srli	r3,r5,23
  8027fc:	dc000015 	stw	r16,0(sp)
  802800:	2020d5fa 	srli	r16,r4,23
  802804:	200cd7fa 	srli	r6,r4,31
  802808:	00802034 	movhi	r2,128
  80280c:	2812d7fa 	srli	r9,r5,31
  802810:	10bfffc4 	addi	r2,r2,-1
  802814:	1114703a 	and	r10,r2,r4
  802818:	1b003fcc 	andi	r12,r3,255
  80281c:	dc400115 	stw	r17,4(sp)
  802820:	84003fcc 	andi	r16,r16,255
  802824:	115a703a 	and	r13,r2,r5
  802828:	dfc00315 	stw	ra,12(sp)
  80282c:	dc800215 	stw	r18,8(sp)
  802830:	500e90fa 	slli	r7,r10,3
  802834:	681090fa 	slli	r8,r13,3
  802838:	5007883a 	mov	r3,r10
  80283c:	3023883a 	mov	r17,r6
  802840:	8317c83a 	sub	r11,r16,r12
  802844:	32403926 	beq	r6,r9,80292c <__addsf3+0x138>
  802848:	02c02e0e 	bge	zero,r11,802904 <__addsf3+0x110>
  80284c:	60004c26 	beq	r12,zero,802980 <__addsf3+0x18c>
  802850:	80803fe0 	cmpeqi	r2,r16,255
  802854:	1000801e 	bne	r2,zero,802a58 <__addsf3+0x264>
  802858:	42010034 	orhi	r8,r8,1024
  80285c:	58800710 	cmplti	r2,r11,28
  802860:	10009e1e 	bne	r2,zero,802adc <__addsf3+0x2e8>
  802864:	01000044 	movi	r4,1
  802868:	3909c83a 	sub	r4,r7,r4
  80286c:	2081002c 	andhi	r2,r4,1024
  802870:	10006826 	beq	r2,zero,802a14 <__addsf3+0x220>
  802874:	04810034 	movhi	r18,1024
  802878:	94bfffc4 	addi	r18,r18,-1
  80287c:	24a4703a 	and	r18,r4,r18
  802880:	9009883a 	mov	r4,r18
  802884:	08057d40 	call	8057d4 <__clzsi2>
  802888:	10bffec4 	addi	r2,r2,-5
  80288c:	9088983a 	sll	r4,r18,r2
  802890:	1400880e 	bge	r2,r16,802ab4 <__addsf3+0x2c0>
  802894:	00ff0034 	movhi	r3,64512
  802898:	18ffffc4 	addi	r3,r3,-1
  80289c:	80a1c83a 	sub	r16,r16,r2
  8028a0:	20c8703a 	and	r4,r4,r3
  8028a4:	208001cc 	andi	r2,r4,7
  8028a8:	10000426 	beq	r2,zero,8028bc <__addsf3+0xc8>
  8028ac:	208003cc 	andi	r2,r4,15
  8028b0:	10800120 	cmpeqi	r2,r2,4
  8028b4:	1000011e 	bne	r2,zero,8028bc <__addsf3+0xc8>
  8028b8:	21000104 	addi	r4,r4,4
  8028bc:	2081002c 	andhi	r2,r4,1024
  8028c0:	10005626 	beq	r2,zero,802a1c <__addsf3+0x228>
  8028c4:	84000044 	addi	r16,r16,1
  8028c8:	80803fe0 	cmpeqi	r2,r16,255
  8028cc:	1000461e 	bne	r2,zero,8029e8 <__addsf3+0x1f4>
  8028d0:	200491ba 	slli	r2,r4,6
  8028d4:	1006d27a 	srli	r3,r2,9
  8028d8:	84003fcc 	andi	r16,r16,255
  8028dc:	800495fa 	slli	r2,r16,23
  8028e0:	882297fa 	slli	r17,r17,31
  8028e4:	10c4b03a 	or	r2,r2,r3
  8028e8:	1444b03a 	or	r2,r2,r17
  8028ec:	dfc00317 	ldw	ra,12(sp)
  8028f0:	dc800217 	ldw	r18,8(sp)
  8028f4:	dc400117 	ldw	r17,4(sp)
  8028f8:	dc000017 	ldw	r16,0(sp)
  8028fc:	dec00404 	addi	sp,sp,16
  802900:	f800283a 	ret
  802904:	58002526 	beq	r11,zero,80299c <__addsf3+0x1a8>
  802908:	6417c83a 	sub	r11,r12,r16
  80290c:	8000821e 	bne	r16,zero,802b18 <__addsf3+0x324>
  802910:	38006426 	beq	r7,zero,802aa4 <__addsf3+0x2b0>
  802914:	58bfffc4 	addi	r2,r11,-1
  802918:	1000c226 	beq	r2,zero,802c24 <__addsf3+0x430>
  80291c:	5ac03fe0 	cmpeqi	r11,r11,255
  802920:	58004b1e 	bne	r11,zero,802a50 <__addsf3+0x25c>
  802924:	1017883a 	mov	r11,r2
  802928:	00007e06 	br	802b24 <__addsf3+0x330>
  80292c:	02c0510e 	bge	zero,r11,802a74 <__addsf3+0x280>
  802930:	60002626 	beq	r12,zero,8029cc <__addsf3+0x1d8>
  802934:	80803fe0 	cmpeqi	r2,r16,255
  802938:	1000471e 	bne	r2,zero,802a58 <__addsf3+0x264>
  80293c:	42010034 	orhi	r8,r8,1024
  802940:	58800710 	cmplti	r2,r11,28
  802944:	10007e1e 	bne	r2,zero,802b40 <__addsf3+0x34c>
  802948:	01000044 	movi	r4,1
  80294c:	21c9883a 	add	r4,r4,r7
  802950:	2081002c 	andhi	r2,r4,1024
  802954:	10002f26 	beq	r2,zero,802a14 <__addsf3+0x220>
  802958:	84000044 	addi	r16,r16,1
  80295c:	80803fe0 	cmpeqi	r2,r16,255
  802960:	1000211e 	bne	r2,zero,8029e8 <__addsf3+0x1f4>
  802964:	2004d07a 	srli	r2,r4,1
  802968:	00df8034 	movhi	r3,32256
  80296c:	18ffffc4 	addi	r3,r3,-1
  802970:	2100004c 	andi	r4,r4,1
  802974:	10c4703a 	and	r2,r2,r3
  802978:	1108b03a 	or	r4,r2,r4
  80297c:	003fc906 	br	8028a4 <__addsf3+0xb0>
  802980:	40004a26 	beq	r8,zero,802aac <__addsf3+0x2b8>
  802984:	58bfffc4 	addi	r2,r11,-1
  802988:	10009326 	beq	r2,zero,802bd8 <__addsf3+0x3e4>
  80298c:	59003fe0 	cmpeqi	r4,r11,255
  802990:	2000311e 	bne	r4,zero,802a58 <__addsf3+0x264>
  802994:	1017883a 	mov	r11,r2
  802998:	003fb006 	br	80285c <__addsf3+0x68>
  80299c:	81800044 	addi	r6,r16,1
  8029a0:	31803f8c 	andi	r6,r6,254
  8029a4:	3000541e 	bne	r6,zero,802af8 <__addsf3+0x304>
  8029a8:	80007e1e 	bne	r16,zero,802ba4 <__addsf3+0x3b0>
  8029ac:	3800a326 	beq	r7,zero,802c3c <__addsf3+0x448>
  8029b0:	40009326 	beq	r8,zero,802c00 <__addsf3+0x40c>
  8029b4:	3a09c83a 	sub	r4,r7,r8
  8029b8:	2081002c 	andhi	r2,r4,1024
  8029bc:	1000a626 	beq	r2,zero,802c58 <__addsf3+0x464>
  8029c0:	41c9c83a 	sub	r4,r8,r7
  8029c4:	4823883a 	mov	r17,r9
  8029c8:	003fb606 	br	8028a4 <__addsf3+0xb0>
  8029cc:	40003726 	beq	r8,zero,802aac <__addsf3+0x2b8>
  8029d0:	58bfffc4 	addi	r2,r11,-1
  8029d4:	10007b26 	beq	r2,zero,802bc4 <__addsf3+0x3d0>
  8029d8:	5ac03fe0 	cmpeqi	r11,r11,255
  8029dc:	58001e1e 	bne	r11,zero,802a58 <__addsf3+0x264>
  8029e0:	1017883a 	mov	r11,r2
  8029e4:	003fd606 	br	802940 <__addsf3+0x14c>
  8029e8:	043fffc4 	movi	r16,-1
  8029ec:	0007883a 	mov	r3,zero
  8029f0:	003fb906 	br	8028d8 <__addsf3+0xe4>
  8029f4:	80800044 	addi	r2,r16,1
  8029f8:	11803f8c 	andi	r6,r2,254
  8029fc:	30005726 	beq	r6,zero,802b5c <__addsf3+0x368>
  802a00:	10c03fe0 	cmpeqi	r3,r2,255
  802a04:	183ff81e 	bne	r3,zero,8029e8 <__addsf3+0x1f4>
  802a08:	3a09883a 	add	r4,r7,r8
  802a0c:	2008d07a 	srli	r4,r4,1
  802a10:	1021883a 	mov	r16,r2
  802a14:	208001cc 	andi	r2,r4,7
  802a18:	103fa41e 	bne	r2,zero,8028ac <__addsf3+0xb8>
  802a1c:	2014d0fa 	srli	r10,r4,3
  802a20:	80803fe0 	cmpeqi	r2,r16,255
  802a24:	10000c1e 	bne	r2,zero,802a58 <__addsf3+0x264>
  802a28:	00802034 	movhi	r2,128
  802a2c:	10bfffc4 	addi	r2,r2,-1
  802a30:	5086703a 	and	r3,r10,r2
  802a34:	003fa806 	br	8028d8 <__addsf3+0xe4>
  802a38:	38000626 	beq	r7,zero,802a54 <__addsf3+0x260>
  802a3c:	40000626 	beq	r8,zero,802a58 <__addsf3+0x264>
  802a40:	2080102c 	andhi	r2,r4,64
  802a44:	10000426 	beq	r2,zero,802a58 <__addsf3+0x264>
  802a48:	2940102c 	andhi	r5,r5,64
  802a4c:	2800021e 	bne	r5,zero,802a58 <__addsf3+0x264>
  802a50:	4823883a 	mov	r17,r9
  802a54:	6815883a 	mov	r10,r13
  802a58:	503fe326 	beq	r10,zero,8029e8 <__addsf3+0x1f4>
  802a5c:	00802034 	movhi	r2,128
  802a60:	50c01034 	orhi	r3,r10,64
  802a64:	10bfffc4 	addi	r2,r2,-1
  802a68:	1886703a 	and	r3,r3,r2
  802a6c:	043fffc4 	movi	r16,-1
  802a70:	003f9906 	br	8028d8 <__addsf3+0xe4>
  802a74:	583fdf26 	beq	r11,zero,8029f4 <__addsf3+0x200>
  802a78:	6417c83a 	sub	r11,r12,r16
  802a7c:	80004226 	beq	r16,zero,802b88 <__addsf3+0x394>
  802a80:	60803fe0 	cmpeqi	r2,r12,255
  802a84:	103ff31e 	bne	r2,zero,802a54 <__addsf3+0x260>
  802a88:	39c10034 	orhi	r7,r7,1024
  802a8c:	58800710 	cmplti	r2,r11,28
  802a90:	10005d1e 	bne	r2,zero,802c08 <__addsf3+0x414>
  802a94:	01000044 	movi	r4,1
  802a98:	2209883a 	add	r4,r4,r8
  802a9c:	6021883a 	mov	r16,r12
  802aa0:	003fab06 	br	802950 <__addsf3+0x15c>
  802aa4:	4823883a 	mov	r17,r9
  802aa8:	6815883a 	mov	r10,r13
  802aac:	5821883a 	mov	r16,r11
  802ab0:	003fdb06 	br	802a20 <__addsf3+0x22c>
  802ab4:	1405c83a 	sub	r2,r2,r16
  802ab8:	14800044 	addi	r18,r2,1
  802abc:	00800804 	movi	r2,32
  802ac0:	1485c83a 	sub	r2,r2,r18
  802ac4:	2084983a 	sll	r2,r4,r2
  802ac8:	2488d83a 	srl	r4,r4,r18
  802acc:	0021883a 	mov	r16,zero
  802ad0:	1004c03a 	cmpne	r2,r2,zero
  802ad4:	1108b03a 	or	r4,r2,r4
  802ad8:	003f7206 	br	8028a4 <__addsf3+0xb0>
  802adc:	01000804 	movi	r4,32
  802ae0:	22c9c83a 	sub	r4,r4,r11
  802ae4:	4108983a 	sll	r4,r8,r4
  802ae8:	42d0d83a 	srl	r8,r8,r11
  802aec:	2008c03a 	cmpne	r4,r4,zero
  802af0:	2208b03a 	or	r4,r4,r8
  802af4:	003f5c06 	br	802868 <__addsf3+0x74>
  802af8:	3a25c83a 	sub	r18,r7,r8
  802afc:	9081002c 	andhi	r2,r18,1024
  802b00:	10002d1e 	bne	r2,zero,802bb8 <__addsf3+0x3c4>
  802b04:	903f5e1e 	bne	r18,zero,802880 <__addsf3+0x8c>
  802b08:	0023883a 	mov	r17,zero
  802b0c:	0021883a 	mov	r16,zero
  802b10:	0007883a 	mov	r3,zero
  802b14:	003f7006 	br	8028d8 <__addsf3+0xe4>
  802b18:	60803fe0 	cmpeqi	r2,r12,255
  802b1c:	103fcc1e 	bne	r2,zero,802a50 <__addsf3+0x25c>
  802b20:	39c10034 	orhi	r7,r7,1024
  802b24:	58800710 	cmplti	r2,r11,28
  802b28:	10002e1e 	bne	r2,zero,802be4 <__addsf3+0x3f0>
  802b2c:	01000044 	movi	r4,1
  802b30:	4109c83a 	sub	r4,r8,r4
  802b34:	4823883a 	mov	r17,r9
  802b38:	6021883a 	mov	r16,r12
  802b3c:	003f4b06 	br	80286c <__addsf3+0x78>
  802b40:	01000804 	movi	r4,32
  802b44:	22c9c83a 	sub	r4,r4,r11
  802b48:	4108983a 	sll	r4,r8,r4
  802b4c:	42d0d83a 	srl	r8,r8,r11
  802b50:	2008c03a 	cmpne	r4,r4,zero
  802b54:	2208b03a 	or	r4,r4,r8
  802b58:	003f7c06 	br	80294c <__addsf3+0x158>
  802b5c:	803fb61e 	bne	r16,zero,802a38 <__addsf3+0x244>
  802b60:	38003a26 	beq	r7,zero,802c4c <__addsf3+0x458>
  802b64:	40002626 	beq	r8,zero,802c00 <__addsf3+0x40c>
  802b68:	3a09883a 	add	r4,r7,r8
  802b6c:	2081002c 	andhi	r2,r4,1024
  802b70:	103fa826 	beq	r2,zero,802a14 <__addsf3+0x220>
  802b74:	00bf0034 	movhi	r2,64512
  802b78:	10bfffc4 	addi	r2,r2,-1
  802b7c:	2088703a 	and	r4,r4,r2
  802b80:	04000044 	movi	r16,1
  802b84:	003fa306 	br	802a14 <__addsf3+0x220>
  802b88:	383fc726 	beq	r7,zero,802aa8 <__addsf3+0x2b4>
  802b8c:	58bfffc4 	addi	r2,r11,-1
  802b90:	10000c26 	beq	r2,zero,802bc4 <__addsf3+0x3d0>
  802b94:	5ac03fe0 	cmpeqi	r11,r11,255
  802b98:	583fae1e 	bne	r11,zero,802a54 <__addsf3+0x260>
  802b9c:	1017883a 	mov	r11,r2
  802ba0:	003fba06 	br	802a8c <__addsf3+0x298>
  802ba4:	383fa51e 	bne	r7,zero,802a3c <__addsf3+0x248>
  802ba8:	403fa91e 	bne	r8,zero,802a50 <__addsf3+0x25c>
  802bac:	0023883a 	mov	r17,zero
  802bb0:	1007883a 	mov	r3,r2
  802bb4:	003fad06 	br	802a6c <__addsf3+0x278>
  802bb8:	41e5c83a 	sub	r18,r8,r7
  802bbc:	4823883a 	mov	r17,r9
  802bc0:	003f2f06 	br	802880 <__addsf3+0x8c>
  802bc4:	3a09883a 	add	r4,r7,r8
  802bc8:	2081002c 	andhi	r2,r4,1024
  802bcc:	10001926 	beq	r2,zero,802c34 <__addsf3+0x440>
  802bd0:	04000084 	movi	r16,2
  802bd4:	003f6306 	br	802964 <__addsf3+0x170>
  802bd8:	3a09c83a 	sub	r4,r7,r8
  802bdc:	04000044 	movi	r16,1
  802be0:	003f2206 	br	80286c <__addsf3+0x78>
  802be4:	00800804 	movi	r2,32
  802be8:	12c5c83a 	sub	r2,r2,r11
  802bec:	3884983a 	sll	r2,r7,r2
  802bf0:	3aced83a 	srl	r7,r7,r11
  802bf4:	1008c03a 	cmpne	r4,r2,zero
  802bf8:	21c8b03a 	or	r4,r4,r7
  802bfc:	003fcc06 	br	802b30 <__addsf3+0x33c>
  802c00:	0021883a 	mov	r16,zero
  802c04:	003f3406 	br	8028d8 <__addsf3+0xe4>
  802c08:	01000804 	movi	r4,32
  802c0c:	22c9c83a 	sub	r4,r4,r11
  802c10:	3908983a 	sll	r4,r7,r4
  802c14:	3aced83a 	srl	r7,r7,r11
  802c18:	2008c03a 	cmpne	r4,r4,zero
  802c1c:	21c8b03a 	or	r4,r4,r7
  802c20:	003f9d06 	br	802a98 <__addsf3+0x2a4>
  802c24:	41c9c83a 	sub	r4,r8,r7
  802c28:	4823883a 	mov	r17,r9
  802c2c:	04000044 	movi	r16,1
  802c30:	003f0e06 	br	80286c <__addsf3+0x78>
  802c34:	04000044 	movi	r16,1
  802c38:	003f7606 	br	802a14 <__addsf3+0x220>
  802c3c:	403fb226 	beq	r8,zero,802b08 <__addsf3+0x314>
  802c40:	4823883a 	mov	r17,r9
  802c44:	6807883a 	mov	r3,r13
  802c48:	003f2306 	br	8028d8 <__addsf3+0xe4>
  802c4c:	6807883a 	mov	r3,r13
  802c50:	0021883a 	mov	r16,zero
  802c54:	003f2006 	br	8028d8 <__addsf3+0xe4>
  802c58:	203fab26 	beq	r4,zero,802b08 <__addsf3+0x314>
  802c5c:	003f6d06 	br	802a14 <__addsf3+0x220>

00802c60 <__divsf3>:
  802c60:	defff604 	addi	sp,sp,-40
  802c64:	2006d5fa 	srli	r3,r4,23
  802c68:	dd400615 	stw	r21,24(sp)
  802c6c:	202ad7fa 	srli	r21,r4,31
  802c70:	00802034 	movhi	r2,128
  802c74:	dc800315 	stw	r18,12(sp)
  802c78:	dc000115 	stw	r16,4(sp)
  802c7c:	10bfffc4 	addi	r2,r2,-1
  802c80:	dfc00915 	stw	ra,36(sp)
  802c84:	ddc00815 	stw	r23,32(sp)
  802c88:	dd800715 	stw	r22,28(sp)
  802c8c:	dd000515 	stw	r20,20(sp)
  802c90:	dcc00415 	stw	r19,16(sp)
  802c94:	dc400215 	stw	r17,8(sp)
  802c98:	18c03fcc 	andi	r3,r3,255
  802c9c:	1120703a 	and	r16,r2,r4
  802ca0:	a825883a 	mov	r18,r21
  802ca4:	18007b26 	beq	r3,zero,802e94 <__divsf3+0x234>
  802ca8:	18803fe0 	cmpeqi	r2,r3,255
  802cac:	10007e1e 	bne	r2,zero,802ea8 <__divsf3+0x248>
  802cb0:	800490fa 	slli	r2,r16,3
  802cb4:	1d3fe044 	addi	r20,r3,-127
  802cb8:	0023883a 	mov	r17,zero
  802cbc:	14010034 	orhi	r16,r2,1024
  802cc0:	002d883a 	mov	r22,zero
  802cc4:	2806d5fa 	srli	r3,r5,23
  802cc8:	01002034 	movhi	r4,128
  802ccc:	213fffc4 	addi	r4,r4,-1
  802cd0:	18c03fcc 	andi	r3,r3,255
  802cd4:	282ed7fa 	srli	r23,r5,31
  802cd8:	2166703a 	and	r19,r4,r5
  802cdc:	18005326 	beq	r3,zero,802e2c <__divsf3+0x1cc>
  802ce0:	18803fe0 	cmpeqi	r2,r3,255
  802ce4:	10004d1e 	bne	r2,zero,802e1c <__divsf3+0x1bc>
  802ce8:	980a90fa 	slli	r5,r19,3
  802cec:	18ffe044 	addi	r3,r3,-127
  802cf0:	a0e9c83a 	sub	r20,r20,r3
  802cf4:	2cc10034 	orhi	r19,r5,1024
  802cf8:	0007883a 	mov	r3,zero
  802cfc:	1c62b03a 	or	r17,r3,r17
  802d00:	882290ba 	slli	r17,r17,2
  802d04:	00802034 	movhi	r2,128
  802d08:	bd6af03a 	xor	r21,r23,r21
  802d0c:	8885883a 	add	r2,r17,r2
  802d10:	108b4717 	ldw	r2,11548(r2)
  802d14:	a809883a 	mov	r4,r21
  802d18:	1000683a 	jmp	r2
  802d1c:	00802fe0 	cmpeqi	r2,zero,191
  802d20:	00802f20 	cmpeqi	r2,zero,188
  802d24:	00802dd0 	cmplti	r2,zero,183
  802d28:	00802d60 	cmpeqi	r2,zero,181
  802d2c:	00802dd0 	cmplti	r2,zero,183
  802d30:	00802f8c 	andi	r2,zero,190
  802d34:	00802dd0 	cmplti	r2,zero,183
  802d38:	00802d60 	cmpeqi	r2,zero,181
  802d3c:	00802f20 	cmpeqi	r2,zero,188
  802d40:	00802f20 	cmpeqi	r2,zero,188
  802d44:	00802f8c 	andi	r2,zero,190
  802d48:	00802d60 	cmpeqi	r2,zero,181
  802d4c:	00802d6c 	andhi	r2,zero,181
  802d50:	00802d6c 	andhi	r2,zero,181
  802d54:	00802d6c 	andhi	r2,zero,181
  802d58:	00802fa4 	muli	r2,zero,190
  802d5c:	0027883a 	mov	r19,zero
  802d60:	b825883a 	mov	r18,r23
  802d64:	9821883a 	mov	r16,r19
  802d68:	182d883a 	mov	r22,r3
  802d6c:	b08000a0 	cmpeqi	r2,r22,2
  802d70:	1000831e 	bne	r2,zero,802f80 <__divsf3+0x320>
  802d74:	b08000e0 	cmpeqi	r2,r22,3
  802d78:	1000941e 	bne	r2,zero,802fcc <__divsf3+0x36c>
  802d7c:	b5800060 	cmpeqi	r22,r22,1
  802d80:	b000141e 	bne	r22,zero,802dd4 <__divsf3+0x174>
  802d84:	a0801fc4 	addi	r2,r20,127
  802d88:	0080690e 	bge	zero,r2,802f30 <__divsf3+0x2d0>
  802d8c:	80c001cc 	andi	r3,r16,7
  802d90:	18000426 	beq	r3,zero,802da4 <__divsf3+0x144>
  802d94:	80c003cc 	andi	r3,r16,15
  802d98:	18c00120 	cmpeqi	r3,r3,4
  802d9c:	1800011e 	bne	r3,zero,802da4 <__divsf3+0x144>
  802da0:	84000104 	addi	r16,r16,4
  802da4:	80c2002c 	andhi	r3,r16,2048
  802da8:	18000426 	beq	r3,zero,802dbc <__divsf3+0x15c>
  802dac:	00be0034 	movhi	r2,63488
  802db0:	10bfffc4 	addi	r2,r2,-1
  802db4:	80a0703a 	and	r16,r16,r2
  802db8:	a0802004 	addi	r2,r20,128
  802dbc:	10c03fc8 	cmpgei	r3,r2,255
  802dc0:	18006f1e 	bne	r3,zero,802f80 <__divsf3+0x320>
  802dc4:	802091ba 	slli	r16,r16,6
  802dc8:	8020d27a 	srli	r16,r16,9
  802dcc:	00000306 	br	802ddc <__divsf3+0x17c>
  802dd0:	a825883a 	mov	r18,r21
  802dd4:	0005883a 	mov	r2,zero
  802dd8:	0021883a 	mov	r16,zero
  802ddc:	10803fcc 	andi	r2,r2,255
  802de0:	100495fa 	slli	r2,r2,23
  802de4:	902497fa 	slli	r18,r18,31
  802de8:	1404b03a 	or	r2,r2,r16
  802dec:	1484b03a 	or	r2,r2,r18
  802df0:	dfc00917 	ldw	ra,36(sp)
  802df4:	ddc00817 	ldw	r23,32(sp)
  802df8:	dd800717 	ldw	r22,28(sp)
  802dfc:	dd400617 	ldw	r21,24(sp)
  802e00:	dd000517 	ldw	r20,20(sp)
  802e04:	dcc00417 	ldw	r19,16(sp)
  802e08:	dc800317 	ldw	r18,12(sp)
  802e0c:	dc400217 	ldw	r17,8(sp)
  802e10:	dc000117 	ldw	r16,4(sp)
  802e14:	dec00a04 	addi	sp,sp,40
  802e18:	f800283a 	ret
  802e1c:	a53fc044 	addi	r20,r20,-255
  802e20:	98003d1e 	bne	r19,zero,802f18 <__divsf3+0x2b8>
  802e24:	00c00084 	movi	r3,2
  802e28:	00000206 	br	802e34 <__divsf3+0x1d4>
  802e2c:	9800321e 	bne	r19,zero,802ef8 <__divsf3+0x298>
  802e30:	00c00044 	movi	r3,1
  802e34:	1c62b03a 	or	r17,r3,r17
  802e38:	882290ba 	slli	r17,r17,2
  802e3c:	00802034 	movhi	r2,128
  802e40:	bd6af03a 	xor	r21,r23,r21
  802e44:	8885883a 	add	r2,r17,r2
  802e48:	108b9517 	ldw	r2,11860(r2)
  802e4c:	a809883a 	mov	r4,r21
  802e50:	1000683a 	jmp	r2
  802e54:	00802f20 	cmpeqi	r2,zero,188
  802e58:	00802f20 	cmpeqi	r2,zero,188
  802e5c:	00802dd0 	cmplti	r2,zero,183
  802e60:	00802d5c 	xori	r2,zero,181
  802e64:	00802dd0 	cmplti	r2,zero,183
  802e68:	00802f8c 	andi	r2,zero,190
  802e6c:	00802dd0 	cmplti	r2,zero,183
  802e70:	00802d5c 	xori	r2,zero,181
  802e74:	00802f20 	cmpeqi	r2,zero,188
  802e78:	00802f20 	cmpeqi	r2,zero,188
  802e7c:	00802f8c 	andi	r2,zero,190
  802e80:	00802d5c 	xori	r2,zero,181
  802e84:	00802d6c 	andhi	r2,zero,181
  802e88:	00802d6c 	andhi	r2,zero,181
  802e8c:	00802d6c 	andhi	r2,zero,181
  802e90:	00802fa0 	cmpeqi	r2,zero,190
  802e94:	80000d1e 	bne	r16,zero,802ecc <__divsf3+0x26c>
  802e98:	04400104 	movi	r17,4
  802e9c:	0029883a 	mov	r20,zero
  802ea0:	05800044 	movi	r22,1
  802ea4:	003f8706 	br	802cc4 <__divsf3+0x64>
  802ea8:	8000041e 	bne	r16,zero,802ebc <__divsf3+0x25c>
  802eac:	04400204 	movi	r17,8
  802eb0:	05003fc4 	movi	r20,255
  802eb4:	05800084 	movi	r22,2
  802eb8:	003f8206 	br	802cc4 <__divsf3+0x64>
  802ebc:	04400304 	movi	r17,12
  802ec0:	05003fc4 	movi	r20,255
  802ec4:	058000c4 	movi	r22,3
  802ec8:	003f7e06 	br	802cc4 <__divsf3+0x64>
  802ecc:	8009883a 	mov	r4,r16
  802ed0:	d9400015 	stw	r5,0(sp)
  802ed4:	08057d40 	call	8057d4 <__clzsi2>
  802ed8:	10fffec4 	addi	r3,r2,-5
  802edc:	80e0983a 	sll	r16,r16,r3
  802ee0:	00ffe284 	movi	r3,-118
  802ee4:	d9400017 	ldw	r5,0(sp)
  802ee8:	18a9c83a 	sub	r20,r3,r2
  802eec:	0023883a 	mov	r17,zero
  802ef0:	002d883a 	mov	r22,zero
  802ef4:	003f7306 	br	802cc4 <__divsf3+0x64>
  802ef8:	9809883a 	mov	r4,r19
  802efc:	08057d40 	call	8057d4 <__clzsi2>
  802f00:	a087883a 	add	r3,r20,r2
  802f04:	113ffec4 	addi	r4,r2,-5
  802f08:	1d001d84 	addi	r20,r3,118
  802f0c:	9926983a 	sll	r19,r19,r4
  802f10:	0007883a 	mov	r3,zero
  802f14:	003f7906 	br	802cfc <__divsf3+0x9c>
  802f18:	00c000c4 	movi	r3,3
  802f1c:	003f7706 	br	802cfc <__divsf3+0x9c>
  802f20:	2025883a 	mov	r18,r4
  802f24:	00bfffc4 	movi	r2,-1
  802f28:	0021883a 	mov	r16,zero
  802f2c:	003fab06 	br	802ddc <__divsf3+0x17c>
  802f30:	00c00044 	movi	r3,1
  802f34:	1885c83a 	sub	r2,r3,r2
  802f38:	10c00708 	cmpgei	r3,r2,28
  802f3c:	183fa51e 	bne	r3,zero,802dd4 <__divsf3+0x174>
  802f40:	a0c02784 	addi	r3,r20,158
  802f44:	80c6983a 	sll	r3,r16,r3
  802f48:	8084d83a 	srl	r2,r16,r2
  802f4c:	1820c03a 	cmpne	r16,r3,zero
  802f50:	1404b03a 	or	r2,r2,r16
  802f54:	10c001cc 	andi	r3,r2,7
  802f58:	18000426 	beq	r3,zero,802f6c <__divsf3+0x30c>
  802f5c:	10c003cc 	andi	r3,r2,15
  802f60:	18c00120 	cmpeqi	r3,r3,4
  802f64:	1800011e 	bne	r3,zero,802f6c <__divsf3+0x30c>
  802f68:	10800104 	addi	r2,r2,4
  802f6c:	10c1002c 	andhi	r3,r2,1024
  802f70:	18003426 	beq	r3,zero,803044 <__divsf3+0x3e4>
  802f74:	00800044 	movi	r2,1
  802f78:	0021883a 	mov	r16,zero
  802f7c:	003f9706 	br	802ddc <__divsf3+0x17c>
  802f80:	00bfffc4 	movi	r2,-1
  802f84:	0021883a 	mov	r16,zero
  802f88:	003f9406 	br	802ddc <__divsf3+0x17c>
  802f8c:	04002034 	movhi	r16,128
  802f90:	0025883a 	mov	r18,zero
  802f94:	843fffc4 	addi	r16,r16,-1
  802f98:	00bfffc4 	movi	r2,-1
  802f9c:	003f8f06 	br	802ddc <__divsf3+0x17c>
  802fa0:	0027883a 	mov	r19,zero
  802fa4:	8080102c 	andhi	r2,r16,64
  802fa8:	10000826 	beq	r2,zero,802fcc <__divsf3+0x36c>
  802fac:	9880102c 	andhi	r2,r19,64
  802fb0:	1000061e 	bne	r2,zero,802fcc <__divsf3+0x36c>
  802fb4:	00802034 	movhi	r2,128
  802fb8:	9c001034 	orhi	r16,r19,64
  802fbc:	10bfffc4 	addi	r2,r2,-1
  802fc0:	80a0703a 	and	r16,r16,r2
  802fc4:	b825883a 	mov	r18,r23
  802fc8:	003ff306 	br	802f98 <__divsf3+0x338>
  802fcc:	00802034 	movhi	r2,128
  802fd0:	84001034 	orhi	r16,r16,64
  802fd4:	10bfffc4 	addi	r2,r2,-1
  802fd8:	80a0703a 	and	r16,r16,r2
  802fdc:	003fee06 	br	802f98 <__divsf3+0x338>
  802fe0:	8004917a 	slli	r2,r16,5
  802fe4:	980a917a 	slli	r5,r19,5
  802fe8:	1140122e 	bgeu	r2,r5,803034 <__divsf3+0x3d4>
  802fec:	a53fffc4 	addi	r20,r20,-1
  802ff0:	010006c4 	movi	r4,27
  802ff4:	0021883a 	mov	r16,zero
  802ff8:	1007883a 	mov	r3,r2
  802ffc:	213fffc4 	addi	r4,r4,-1
  803000:	1085883a 	add	r2,r2,r2
  803004:	8421883a 	add	r16,r16,r16
  803008:	18000116 	blt	r3,zero,803010 <__divsf3+0x3b0>
  80300c:	11400236 	bltu	r2,r5,803018 <__divsf3+0x3b8>
  803010:	1145c83a 	sub	r2,r2,r5
  803014:	84000054 	ori	r16,r16,1
  803018:	203ff71e 	bne	r4,zero,802ff8 <__divsf3+0x398>
  80301c:	1004c03a 	cmpne	r2,r2,zero
  803020:	1420b03a 	or	r16,r2,r16
  803024:	a0801fc4 	addi	r2,r20,127
  803028:	a825883a 	mov	r18,r21
  80302c:	00bf5716 	blt	zero,r2,802d8c <__divsf3+0x12c>
  803030:	003fbf06 	br	802f30 <__divsf3+0x2d0>
  803034:	1145c83a 	sub	r2,r2,r5
  803038:	01000684 	movi	r4,26
  80303c:	04000044 	movi	r16,1
  803040:	003fed06 	br	802ff8 <__divsf3+0x398>
  803044:	102091ba 	slli	r16,r2,6
  803048:	0005883a 	mov	r2,zero
  80304c:	8020d27a 	srli	r16,r16,9
  803050:	003f6206 	br	802ddc <__divsf3+0x17c>

00803054 <__mulsf3>:
  803054:	defff504 	addi	sp,sp,-44
  803058:	dc400215 	stw	r17,8(sp)
  80305c:	2022d5fa 	srli	r17,r4,23
  803060:	dc000115 	stw	r16,4(sp)
  803064:	04002034 	movhi	r16,128
  803068:	dd800715 	stw	r22,28(sp)
  80306c:	843fffc4 	addi	r16,r16,-1
  803070:	dfc00a15 	stw	ra,40(sp)
  803074:	df000915 	stw	fp,36(sp)
  803078:	ddc00815 	stw	r23,32(sp)
  80307c:	dd400615 	stw	r21,24(sp)
  803080:	dd000515 	stw	r20,20(sp)
  803084:	dcc00415 	stw	r19,16(sp)
  803088:	dc800315 	stw	r18,12(sp)
  80308c:	8c403fcc 	andi	r17,r17,255
  803090:	202cd7fa 	srli	r22,r4,31
  803094:	8120703a 	and	r16,r16,r4
  803098:	88008d26 	beq	r17,zero,8032d0 <__mulsf3+0x27c>
  80309c:	88803fe0 	cmpeqi	r2,r17,255
  8030a0:	1000901e 	bne	r2,zero,8032e4 <__mulsf3+0x290>
  8030a4:	802090fa 	slli	r16,r16,3
  8030a8:	8c7fe044 	addi	r17,r17,-127
  8030ac:	0025883a 	mov	r18,zero
  8030b0:	84010034 	orhi	r16,r16,1024
  8030b4:	0029883a 	mov	r20,zero
  8030b8:	2804d5fa 	srli	r2,r5,23
  8030bc:	01002034 	movhi	r4,128
  8030c0:	213fffc4 	addi	r4,r4,-1
  8030c4:	10803fcc 	andi	r2,r2,255
  8030c8:	282ed7fa 	srli	r23,r5,31
  8030cc:	2166703a 	and	r19,r4,r5
  8030d0:	10007b26 	beq	r2,zero,8032c0 <__mulsf3+0x26c>
  8030d4:	10c03fe0 	cmpeqi	r3,r2,255
  8030d8:	1800871e 	bne	r3,zero,8032f8 <__mulsf3+0x2a4>
  8030dc:	980890fa 	slli	r4,r19,3
  8030e0:	10bfe044 	addi	r2,r2,-127
  8030e4:	88a3883a 	add	r17,r17,r2
  8030e8:	24c10034 	orhi	r19,r4,1024
  8030ec:	0007883a 	mov	r3,zero
  8030f0:	90800428 	cmpgeui	r2,r18,16
  8030f4:	b5eaf03a 	xor	r21,r22,r23
  8030f8:	8f000044 	addi	fp,r17,1
  8030fc:	1000341e 	bne	r2,zero,8031d0 <__mulsf3+0x17c>
  803100:	902490ba 	slli	r18,r18,2
  803104:	00802034 	movhi	r2,128
  803108:	9085883a 	add	r2,r18,r2
  80310c:	108c4517 	ldw	r2,12564(r2)
  803110:	1000683a 	jmp	r2
  803114:	008031d0 	cmplti	r2,zero,199
  803118:	00803158 	cmpnei	r2,zero,197
  80311c:	00803158 	cmpnei	r2,zero,197
  803120:	00803154 	movui	r2,197
  803124:	00803160 	cmpeqi	r2,zero,197
  803128:	00803160 	cmpeqi	r2,zero,197
  80312c:	00803384 	movi	r2,206
  803130:	00803154 	movui	r2,197
  803134:	00803160 	cmpeqi	r2,zero,197
  803138:	00803384 	movi	r2,206
  80313c:	00803160 	cmpeqi	r2,zero,197
  803140:	00803154 	movui	r2,197
  803144:	0080330c 	andi	r2,zero,204
  803148:	0080330c 	andi	r2,zero,204
  80314c:	0080330c 	andi	r2,zero,204
  803150:	008033e8 	cmpgeui	r2,zero,207
  803154:	b82b883a 	mov	r21,r23
  803158:	9821883a 	mov	r16,r19
  80315c:	1829883a 	mov	r20,r3
  803160:	a08000a0 	cmpeqi	r2,r20,2
  803164:	1000171e 	bne	r2,zero,8031c4 <__mulsf3+0x170>
  803168:	a08000e0 	cmpeqi	r2,r20,3
  80316c:	1000b41e 	bne	r2,zero,803440 <__mulsf3+0x3ec>
  803170:	a0800060 	cmpeqi	r2,r20,1
  803174:	10003f26 	beq	r2,zero,803274 <__mulsf3+0x220>
  803178:	0007883a 	mov	r3,zero
  80317c:	0009883a 	mov	r4,zero
  803180:	1c003fcc 	andi	r16,r3,255
  803184:	802095fa 	slli	r16,r16,23
  803188:	a80497fa 	slli	r2,r21,31
  80318c:	8120b03a 	or	r16,r16,r4
  803190:	8084b03a 	or	r2,r16,r2
  803194:	dfc00a17 	ldw	ra,40(sp)
  803198:	df000917 	ldw	fp,36(sp)
  80319c:	ddc00817 	ldw	r23,32(sp)
  8031a0:	dd800717 	ldw	r22,28(sp)
  8031a4:	dd400617 	ldw	r21,24(sp)
  8031a8:	dd000517 	ldw	r20,20(sp)
  8031ac:	dcc00417 	ldw	r19,16(sp)
  8031b0:	dc800317 	ldw	r18,12(sp)
  8031b4:	dc400217 	ldw	r17,8(sp)
  8031b8:	dc000117 	ldw	r16,4(sp)
  8031bc:	dec00b04 	addi	sp,sp,44
  8031c0:	f800283a 	ret
  8031c4:	00ffffc4 	movi	r3,-1
  8031c8:	0009883a 	mov	r4,zero
  8031cc:	003fec06 	br	803180 <__mulsf3+0x12c>
  8031d0:	8028d43a 	srli	r20,r16,16
  8031d4:	9cbfffcc 	andi	r18,r19,65535
  8031d8:	843fffcc 	andi	r16,r16,65535
  8031dc:	900b883a 	mov	r5,r18
  8031e0:	8009883a 	mov	r4,r16
  8031e4:	08058280 	call	805828 <__mulsi3>
  8031e8:	9826d43a 	srli	r19,r19,16
  8031ec:	900b883a 	mov	r5,r18
  8031f0:	a009883a 	mov	r4,r20
  8031f4:	1025883a 	mov	r18,r2
  8031f8:	08058280 	call	805828 <__mulsi3>
  8031fc:	980b883a 	mov	r5,r19
  803200:	a009883a 	mov	r4,r20
  803204:	1029883a 	mov	r20,r2
  803208:	08058280 	call	805828 <__mulsi3>
  80320c:	9809883a 	mov	r4,r19
  803210:	800b883a 	mov	r5,r16
  803214:	1027883a 	mov	r19,r2
  803218:	08058280 	call	805828 <__mulsi3>
  80321c:	9006d43a 	srli	r3,r18,16
  803220:	1505883a 	add	r2,r2,r20
  803224:	1887883a 	add	r3,r3,r2
  803228:	1d00022e 	bgeu	r3,r20,803234 <__mulsf3+0x1e0>
  80322c:	00800074 	movhi	r2,1
  803230:	98a7883a 	add	r19,r19,r2
  803234:	1808943a 	slli	r4,r3,16
  803238:	1820d43a 	srli	r16,r3,16
  80323c:	94bfffcc 	andi	r18,r18,65535
  803240:	2489883a 	add	r4,r4,r18
  803244:	200a91ba 	slli	r5,r4,6
  803248:	84e1883a 	add	r16,r16,r19
  80324c:	802091ba 	slli	r16,r16,6
  803250:	2008d6ba 	srli	r4,r4,26
  803254:	2804c03a 	cmpne	r2,r5,zero
  803258:	80c2002c 	andhi	r3,r16,2048
  80325c:	1108b03a 	or	r4,r2,r4
  803260:	8120b03a 	or	r16,r16,r4
  803264:	18007026 	beq	r3,zero,803428 <__mulsf3+0x3d4>
  803268:	8004d07a 	srli	r2,r16,1
  80326c:	8400004c 	andi	r16,r16,1
  803270:	1420b03a 	or	r16,r2,r16
  803274:	e0c01fc4 	addi	r3,fp,127
  803278:	00c0470e 	bge	zero,r3,803398 <__mulsf3+0x344>
  80327c:	808001cc 	andi	r2,r16,7
  803280:	10000426 	beq	r2,zero,803294 <__mulsf3+0x240>
  803284:	808003cc 	andi	r2,r16,15
  803288:	10800120 	cmpeqi	r2,r2,4
  80328c:	1000011e 	bne	r2,zero,803294 <__mulsf3+0x240>
  803290:	84000104 	addi	r16,r16,4
  803294:	8082002c 	andhi	r2,r16,2048
  803298:	10000426 	beq	r2,zero,8032ac <__mulsf3+0x258>
  80329c:	00be0034 	movhi	r2,63488
  8032a0:	10bfffc4 	addi	r2,r2,-1
  8032a4:	80a0703a 	and	r16,r16,r2
  8032a8:	e0c02004 	addi	r3,fp,128
  8032ac:	18803fc8 	cmpgei	r2,r3,255
  8032b0:	103fc41e 	bne	r2,zero,8031c4 <__mulsf3+0x170>
  8032b4:	802091ba 	slli	r16,r16,6
  8032b8:	8008d27a 	srli	r4,r16,9
  8032bc:	003fb006 	br	803180 <__mulsf3+0x12c>
  8032c0:	9800281e 	bne	r19,zero,803364 <__mulsf3+0x310>
  8032c4:	94800054 	ori	r18,r18,1
  8032c8:	00c00044 	movi	r3,1
  8032cc:	003f8806 	br	8030f0 <__mulsf3+0x9c>
  8032d0:	8000191e 	bne	r16,zero,803338 <__mulsf3+0x2e4>
  8032d4:	04800104 	movi	r18,4
  8032d8:	0023883a 	mov	r17,zero
  8032dc:	05000044 	movi	r20,1
  8032e0:	003f7506 	br	8030b8 <__mulsf3+0x64>
  8032e4:	8000101e 	bne	r16,zero,803328 <__mulsf3+0x2d4>
  8032e8:	04800204 	movi	r18,8
  8032ec:	04403fc4 	movi	r17,255
  8032f0:	05000084 	movi	r20,2
  8032f4:	003f7006 	br	8030b8 <__mulsf3+0x64>
  8032f8:	8c403fc4 	addi	r17,r17,255
  8032fc:	9800071e 	bne	r19,zero,80331c <__mulsf3+0x2c8>
  803300:	94800094 	ori	r18,r18,2
  803304:	00c00084 	movi	r3,2
  803308:	003f7906 	br	8030f0 <__mulsf3+0x9c>
  80330c:	a08000a0 	cmpeqi	r2,r20,2
  803310:	b02b883a 	mov	r21,r22
  803314:	103f9426 	beq	r2,zero,803168 <__mulsf3+0x114>
  803318:	003faa06 	br	8031c4 <__mulsf3+0x170>
  80331c:	948000d4 	ori	r18,r18,3
  803320:	00c000c4 	movi	r3,3
  803324:	003f7206 	br	8030f0 <__mulsf3+0x9c>
  803328:	04800304 	movi	r18,12
  80332c:	04403fc4 	movi	r17,255
  803330:	050000c4 	movi	r20,3
  803334:	003f6006 	br	8030b8 <__mulsf3+0x64>
  803338:	8009883a 	mov	r4,r16
  80333c:	d9400015 	stw	r5,0(sp)
  803340:	08057d40 	call	8057d4 <__clzsi2>
  803344:	10fffec4 	addi	r3,r2,-5
  803348:	047fe284 	movi	r17,-118
  80334c:	80e0983a 	sll	r16,r16,r3
  803350:	d9400017 	ldw	r5,0(sp)
  803354:	88a3c83a 	sub	r17,r17,r2
  803358:	0025883a 	mov	r18,zero
  80335c:	0029883a 	mov	r20,zero
  803360:	003f5506 	br	8030b8 <__mulsf3+0x64>
  803364:	9809883a 	mov	r4,r19
  803368:	08057d40 	call	8057d4 <__clzsi2>
  80336c:	10fffec4 	addi	r3,r2,-5
  803370:	88a3c83a 	sub	r17,r17,r2
  803374:	98e6983a 	sll	r19,r19,r3
  803378:	8c7fe284 	addi	r17,r17,-118
  80337c:	0007883a 	mov	r3,zero
  803380:	003f5b06 	br	8030f0 <__mulsf3+0x9c>
  803384:	01002034 	movhi	r4,128
  803388:	002b883a 	mov	r21,zero
  80338c:	213fffc4 	addi	r4,r4,-1
  803390:	00ffffc4 	movi	r3,-1
  803394:	003f7a06 	br	803180 <__mulsf3+0x12c>
  803398:	00800044 	movi	r2,1
  80339c:	10c7c83a 	sub	r3,r2,r3
  8033a0:	18800708 	cmpgei	r2,r3,28
  8033a4:	103f741e 	bne	r2,zero,803178 <__mulsf3+0x124>
  8033a8:	e1002784 	addi	r4,fp,158
  8033ac:	8108983a 	sll	r4,r16,r4
  8033b0:	80e0d83a 	srl	r16,r16,r3
  8033b4:	2008c03a 	cmpne	r4,r4,zero
  8033b8:	8120b03a 	or	r16,r16,r4
  8033bc:	808001cc 	andi	r2,r16,7
  8033c0:	10000426 	beq	r2,zero,8033d4 <__mulsf3+0x380>
  8033c4:	808003cc 	andi	r2,r16,15
  8033c8:	10800120 	cmpeqi	r2,r2,4
  8033cc:	1000011e 	bne	r2,zero,8033d4 <__mulsf3+0x380>
  8033d0:	84000104 	addi	r16,r16,4
  8033d4:	8081002c 	andhi	r2,r16,1024
  8033d8:	10001526 	beq	r2,zero,803430 <__mulsf3+0x3dc>
  8033dc:	00c00044 	movi	r3,1
  8033e0:	0009883a 	mov	r4,zero
  8033e4:	003f6606 	br	803180 <__mulsf3+0x12c>
  8033e8:	8080102c 	andhi	r2,r16,64
  8033ec:	10000826 	beq	r2,zero,803410 <__mulsf3+0x3bc>
  8033f0:	9880102c 	andhi	r2,r19,64
  8033f4:	1000061e 	bne	r2,zero,803410 <__mulsf3+0x3bc>
  8033f8:	00802034 	movhi	r2,128
  8033fc:	99001034 	orhi	r4,r19,64
  803400:	10bfffc4 	addi	r2,r2,-1
  803404:	2088703a 	and	r4,r4,r2
  803408:	b82b883a 	mov	r21,r23
  80340c:	003fe006 	br	803390 <__mulsf3+0x33c>
  803410:	00802034 	movhi	r2,128
  803414:	81001034 	orhi	r4,r16,64
  803418:	10bfffc4 	addi	r2,r2,-1
  80341c:	2088703a 	and	r4,r4,r2
  803420:	b02b883a 	mov	r21,r22
  803424:	003fda06 	br	803390 <__mulsf3+0x33c>
  803428:	8839883a 	mov	fp,r17
  80342c:	003f9106 	br	803274 <__mulsf3+0x220>
  803430:	802091ba 	slli	r16,r16,6
  803434:	0007883a 	mov	r3,zero
  803438:	8008d27a 	srli	r4,r16,9
  80343c:	003f5006 	br	803180 <__mulsf3+0x12c>
  803440:	00802034 	movhi	r2,128
  803444:	81001034 	orhi	r4,r16,64
  803448:	10bfffc4 	addi	r2,r2,-1
  80344c:	2088703a 	and	r4,r4,r2
  803450:	003fcf06 	br	803390 <__mulsf3+0x33c>

00803454 <__subsf3>:
  803454:	2804d5fa 	srli	r2,r5,23
  803458:	2006d5fa 	srli	r3,r4,23
  80345c:	200cd7fa 	srli	r6,r4,31
  803460:	01c02034 	movhi	r7,128
  803464:	defffc04 	addi	sp,sp,-16
  803468:	39ffffc4 	addi	r7,r7,-1
  80346c:	12803fcc 	andi	r10,r2,255
  803470:	3908703a 	and	r4,r7,r4
  803474:	dc800215 	stw	r18,8(sp)
  803478:	394e703a 	and	r7,r7,r5
  80347c:	dc400115 	stw	r17,4(sp)
  803480:	1c803fcc 	andi	r18,r3,255
  803484:	dfc00315 	stw	ra,12(sp)
  803488:	dc000015 	stw	r16,0(sp)
  80348c:	50803fd8 	cmpnei	r2,r10,255
  803490:	3023883a 	mov	r17,r6
  803494:	201090fa 	slli	r8,r4,3
  803498:	280ad7fa 	srli	r5,r5,31
  80349c:	381290fa 	slli	r9,r7,3
  8034a0:	2019883a 	mov	r12,r4
  8034a4:	31803fcc 	andi	r6,r6,255
  8034a8:	9297c83a 	sub	r11,r18,r10
  8034ac:	10003f26 	beq	r2,zero,8035ac <__subsf3+0x158>
  8034b0:	2880005c 	xori	r2,r5,1
  8034b4:	30804526 	beq	r6,r2,8035cc <__subsf3+0x178>
  8034b8:	02c0310e 	bge	zero,r11,803580 <__subsf3+0x12c>
  8034bc:	50003f1e 	bne	r10,zero,8035bc <__subsf3+0x168>
  8034c0:	48009526 	beq	r9,zero,803718 <__subsf3+0x2c4>
  8034c4:	58bfffc4 	addi	r2,r11,-1
  8034c8:	1000de26 	beq	r2,zero,803844 <__subsf3+0x3f0>
  8034cc:	59003fe0 	cmpeqi	r4,r11,255
  8034d0:	20007d1e 	bne	r4,zero,8036c8 <__subsf3+0x274>
  8034d4:	1017883a 	mov	r11,r2
  8034d8:	58800710 	cmplti	r2,r11,28
  8034dc:	10009a1e 	bne	r2,zero,803748 <__subsf3+0x2f4>
  8034e0:	01000044 	movi	r4,1
  8034e4:	4109c83a 	sub	r4,r8,r4
  8034e8:	2081002c 	andhi	r2,r4,1024
  8034ec:	10006a26 	beq	r2,zero,803698 <__subsf3+0x244>
  8034f0:	04010034 	movhi	r16,1024
  8034f4:	843fffc4 	addi	r16,r16,-1
  8034f8:	2420703a 	and	r16,r4,r16
  8034fc:	8009883a 	mov	r4,r16
  803500:	08057d40 	call	8057d4 <__clzsi2>
  803504:	10bffec4 	addi	r2,r2,-5
  803508:	8088983a 	sll	r4,r16,r2
  80350c:	1480840e 	bge	r2,r18,803720 <__subsf3+0x2cc>
  803510:	00ff0034 	movhi	r3,64512
  803514:	18ffffc4 	addi	r3,r3,-1
  803518:	90a5c83a 	sub	r18,r18,r2
  80351c:	20c8703a 	and	r4,r4,r3
  803520:	208001cc 	andi	r2,r4,7
  803524:	10000426 	beq	r2,zero,803538 <__subsf3+0xe4>
  803528:	208003cc 	andi	r2,r4,15
  80352c:	10800120 	cmpeqi	r2,r2,4
  803530:	1000011e 	bne	r2,zero,803538 <__subsf3+0xe4>
  803534:	21000104 	addi	r4,r4,4
  803538:	2081002c 	andhi	r2,r4,1024
  80353c:	10005826 	beq	r2,zero,8036a0 <__subsf3+0x24c>
  803540:	90c00044 	addi	r3,r18,1
  803544:	18803fe0 	cmpeqi	r2,r3,255
  803548:	1000481e 	bne	r2,zero,80366c <__subsf3+0x218>
  80354c:	200891ba 	slli	r4,r4,6
  803550:	2008d27a 	srli	r4,r4,9
  803554:	18803fcc 	andi	r2,r3,255
  803558:	100495fa 	slli	r2,r2,23
  80355c:	880697fa 	slli	r3,r17,31
  803560:	1108b03a 	or	r4,r2,r4
  803564:	20c4b03a 	or	r2,r4,r3
  803568:	dfc00317 	ldw	ra,12(sp)
  80356c:	dc800217 	ldw	r18,8(sp)
  803570:	dc400117 	ldw	r17,4(sp)
  803574:	dc000017 	ldw	r16,0(sp)
  803578:	dec00404 	addi	sp,sp,16
  80357c:	f800283a 	ret
  803580:	58002726 	beq	r11,zero,803620 <__subsf3+0x1cc>
  803584:	5497c83a 	sub	r11,r10,r18
  803588:	1023883a 	mov	r17,r2
  80358c:	9000751e 	bne	r18,zero,803764 <__subsf3+0x310>
  803590:	40006026 	beq	r8,zero,803714 <__subsf3+0x2c0>
  803594:	58bfffc4 	addi	r2,r11,-1
  803598:	1000cb26 	beq	r2,zero,8038c8 <__subsf3+0x474>
  80359c:	5ac03fe0 	cmpeqi	r11,r11,255
  8035a0:	5800481e 	bne	r11,zero,8036c4 <__subsf3+0x270>
  8035a4:	1017883a 	mov	r11,r2
  8035a8:	00007106 	br	803770 <__subsf3+0x31c>
  8035ac:	483fc026 	beq	r9,zero,8034b0 <__subsf3+0x5c>
  8035b0:	28803fcc 	andi	r2,r5,255
  8035b4:	31404b26 	beq	r6,r5,8036e4 <__subsf3+0x290>
  8035b8:	02fff10e 	bge	zero,r11,803580 <__subsf3+0x12c>
  8035bc:	90803fe0 	cmpeqi	r2,r18,255
  8035c0:	1000411e 	bne	r2,zero,8036c8 <__subsf3+0x274>
  8035c4:	4a410034 	orhi	r9,r9,1024
  8035c8:	003fc306 	br	8034d8 <__subsf3+0x84>
  8035cc:	02c0450e 	bge	zero,r11,8036e4 <__subsf3+0x290>
  8035d0:	50001f26 	beq	r10,zero,803650 <__subsf3+0x1fc>
  8035d4:	90803fe0 	cmpeqi	r2,r18,255
  8035d8:	10003b1e 	bne	r2,zero,8036c8 <__subsf3+0x274>
  8035dc:	4a410034 	orhi	r9,r9,1024
  8035e0:	58800710 	cmplti	r2,r11,28
  8035e4:	1000701e 	bne	r2,zero,8037a8 <__subsf3+0x354>
  8035e8:	01000044 	movi	r4,1
  8035ec:	2209883a 	add	r4,r4,r8
  8035f0:	2081002c 	andhi	r2,r4,1024
  8035f4:	10002826 	beq	r2,zero,803698 <__subsf3+0x244>
  8035f8:	94800044 	addi	r18,r18,1
  8035fc:	90803fe0 	cmpeqi	r2,r18,255
  803600:	10001a1e 	bne	r2,zero,80366c <__subsf3+0x218>
  803604:	2004d07a 	srli	r2,r4,1
  803608:	00df8034 	movhi	r3,32256
  80360c:	18ffffc4 	addi	r3,r3,-1
  803610:	2100004c 	andi	r4,r4,1
  803614:	10c4703a 	and	r2,r2,r3
  803618:	1108b03a 	or	r4,r2,r4
  80361c:	003fc006 	br	803520 <__subsf3+0xcc>
  803620:	90c00044 	addi	r3,r18,1
  803624:	18c03f8c 	andi	r3,r3,254
  803628:	1800571e 	bne	r3,zero,803788 <__subsf3+0x334>
  80362c:	90007a1e 	bne	r18,zero,803818 <__subsf3+0x3c4>
  803630:	4000a126 	beq	r8,zero,8038b8 <__subsf3+0x464>
  803634:	48008d26 	beq	r9,zero,80386c <__subsf3+0x418>
  803638:	4249c83a 	sub	r4,r8,r9
  80363c:	20c1002c 	andhi	r3,r4,1024
  803640:	1800a726 	beq	r3,zero,8038e0 <__subsf3+0x48c>
  803644:	4a09c83a 	sub	r4,r9,r8
  803648:	1023883a 	mov	r17,r2
  80364c:	003fb406 	br	803520 <__subsf3+0xcc>
  803650:	48003126 	beq	r9,zero,803718 <__subsf3+0x2c4>
  803654:	58bfffc4 	addi	r2,r11,-1
  803658:	10007526 	beq	r2,zero,803830 <__subsf3+0x3dc>
  80365c:	5ac03fe0 	cmpeqi	r11,r11,255
  803660:	5800191e 	bne	r11,zero,8036c8 <__subsf3+0x274>
  803664:	1017883a 	mov	r11,r2
  803668:	003fdd06 	br	8035e0 <__subsf3+0x18c>
  80366c:	00ffffc4 	movi	r3,-1
  803670:	0009883a 	mov	r4,zero
  803674:	003fb706 	br	803554 <__subsf3+0x100>
  803678:	90c00044 	addi	r3,r18,1
  80367c:	19403f8c 	andi	r5,r3,254
  803680:	28005026 	beq	r5,zero,8037c4 <__subsf3+0x370>
  803684:	18803fe0 	cmpeqi	r2,r3,255
  803688:	103ff81e 	bne	r2,zero,80366c <__subsf3+0x218>
  80368c:	4249883a 	add	r4,r8,r9
  803690:	2008d07a 	srli	r4,r4,1
  803694:	1825883a 	mov	r18,r3
  803698:	208001cc 	andi	r2,r4,7
  80369c:	103fa21e 	bne	r2,zero,803528 <__subsf3+0xd4>
  8036a0:	2018d0fa 	srli	r12,r4,3
  8036a4:	90803fe0 	cmpeqi	r2,r18,255
  8036a8:	1000071e 	bne	r2,zero,8036c8 <__subsf3+0x274>
  8036ac:	01002034 	movhi	r4,128
  8036b0:	213fffc4 	addi	r4,r4,-1
  8036b4:	6108703a 	and	r4,r12,r4
  8036b8:	9007883a 	mov	r3,r18
  8036bc:	003fa506 	br	803554 <__subsf3+0x100>
  8036c0:	40006c1e 	bne	r8,zero,803874 <__subsf3+0x420>
  8036c4:	3819883a 	mov	r12,r7
  8036c8:	603fe826 	beq	r12,zero,80366c <__subsf3+0x218>
  8036cc:	00802034 	movhi	r2,128
  8036d0:	61001034 	orhi	r4,r12,64
  8036d4:	10bfffc4 	addi	r2,r2,-1
  8036d8:	2088703a 	and	r4,r4,r2
  8036dc:	00ffffc4 	movi	r3,-1
  8036e0:	003f9c06 	br	803554 <__subsf3+0x100>
  8036e4:	583fe426 	beq	r11,zero,803678 <__subsf3+0x224>
  8036e8:	5497c83a 	sub	r11,r10,r18
  8036ec:	90004026 	beq	r18,zero,8037f0 <__subsf3+0x39c>
  8036f0:	50803fe0 	cmpeqi	r2,r10,255
  8036f4:	103ff31e 	bne	r2,zero,8036c4 <__subsf3+0x270>
  8036f8:	42010034 	orhi	r8,r8,1024
  8036fc:	58800710 	cmplti	r2,r11,28
  803700:	1000641e 	bne	r2,zero,803894 <__subsf3+0x440>
  803704:	01000044 	movi	r4,1
  803708:	2249883a 	add	r4,r4,r9
  80370c:	5025883a 	mov	r18,r10
  803710:	003fb706 	br	8035f0 <__subsf3+0x19c>
  803714:	3819883a 	mov	r12,r7
  803718:	5825883a 	mov	r18,r11
  80371c:	003fe106 	br	8036a4 <__subsf3+0x250>
  803720:	1485c83a 	sub	r2,r2,r18
  803724:	14000044 	addi	r16,r2,1
  803728:	00800804 	movi	r2,32
  80372c:	1405c83a 	sub	r2,r2,r16
  803730:	2084983a 	sll	r2,r4,r2
  803734:	2408d83a 	srl	r4,r4,r16
  803738:	0025883a 	mov	r18,zero
  80373c:	1004c03a 	cmpne	r2,r2,zero
  803740:	1108b03a 	or	r4,r2,r4
  803744:	003f7606 	br	803520 <__subsf3+0xcc>
  803748:	01000804 	movi	r4,32
  80374c:	22c9c83a 	sub	r4,r4,r11
  803750:	4908983a 	sll	r4,r9,r4
  803754:	4ad2d83a 	srl	r9,r9,r11
  803758:	2008c03a 	cmpne	r4,r4,zero
  80375c:	2248b03a 	or	r4,r4,r9
  803760:	003f6006 	br	8034e4 <__subsf3+0x90>
  803764:	50803fe0 	cmpeqi	r2,r10,255
  803768:	103fd61e 	bne	r2,zero,8036c4 <__subsf3+0x270>
  80376c:	42010034 	orhi	r8,r8,1024
  803770:	58800710 	cmplti	r2,r11,28
  803774:	1000361e 	bne	r2,zero,803850 <__subsf3+0x3fc>
  803778:	01000044 	movi	r4,1
  80377c:	4909c83a 	sub	r4,r9,r4
  803780:	5025883a 	mov	r18,r10
  803784:	003f5806 	br	8034e8 <__subsf3+0x94>
  803788:	4261c83a 	sub	r16,r8,r9
  80378c:	80c1002c 	andhi	r3,r16,1024
  803790:	18001e1e 	bne	r3,zero,80380c <__subsf3+0x3b8>
  803794:	803f591e 	bne	r16,zero,8034fc <__subsf3+0xa8>
  803798:	0023883a 	mov	r17,zero
  80379c:	0007883a 	mov	r3,zero
  8037a0:	0009883a 	mov	r4,zero
  8037a4:	003f6b06 	br	803554 <__subsf3+0x100>
  8037a8:	01000804 	movi	r4,32
  8037ac:	22c9c83a 	sub	r4,r4,r11
  8037b0:	4908983a 	sll	r4,r9,r4
  8037b4:	4ad2d83a 	srl	r9,r9,r11
  8037b8:	2008c03a 	cmpne	r4,r4,zero
  8037bc:	2248b03a 	or	r4,r4,r9
  8037c0:	003f8a06 	br	8035ec <__subsf3+0x198>
  8037c4:	903fbe1e 	bne	r18,zero,8036c0 <__subsf3+0x26c>
  8037c8:	40004226 	beq	r8,zero,8038d4 <__subsf3+0x480>
  8037cc:	48002726 	beq	r9,zero,80386c <__subsf3+0x418>
  8037d0:	4249883a 	add	r4,r8,r9
  8037d4:	2081002c 	andhi	r2,r4,1024
  8037d8:	103faf26 	beq	r2,zero,803698 <__subsf3+0x244>
  8037dc:	00bf0034 	movhi	r2,64512
  8037e0:	10bfffc4 	addi	r2,r2,-1
  8037e4:	2088703a 	and	r4,r4,r2
  8037e8:	04800044 	movi	r18,1
  8037ec:	003faa06 	br	803698 <__subsf3+0x244>
  8037f0:	403fc826 	beq	r8,zero,803714 <__subsf3+0x2c0>
  8037f4:	58bfffc4 	addi	r2,r11,-1
  8037f8:	10000d26 	beq	r2,zero,803830 <__subsf3+0x3dc>
  8037fc:	5ac03fe0 	cmpeqi	r11,r11,255
  803800:	583fb01e 	bne	r11,zero,8036c4 <__subsf3+0x270>
  803804:	1017883a 	mov	r11,r2
  803808:	003fbc06 	br	8036fc <__subsf3+0x2a8>
  80380c:	4a21c83a 	sub	r16,r9,r8
  803810:	1023883a 	mov	r17,r2
  803814:	003f3906 	br	8034fc <__subsf3+0xa8>
  803818:	4000161e 	bne	r8,zero,803874 <__subsf3+0x420>
  80381c:	48001a1e 	bne	r9,zero,803888 <__subsf3+0x434>
  803820:	01002034 	movhi	r4,128
  803824:	0023883a 	mov	r17,zero
  803828:	213fffc4 	addi	r4,r4,-1
  80382c:	003fab06 	br	8036dc <__subsf3+0x288>
  803830:	4249883a 	add	r4,r8,r9
  803834:	2081002c 	andhi	r2,r4,1024
  803838:	10001d26 	beq	r2,zero,8038b0 <__subsf3+0x45c>
  80383c:	04800084 	movi	r18,2
  803840:	003f7006 	br	803604 <__subsf3+0x1b0>
  803844:	4249c83a 	sub	r4,r8,r9
  803848:	04800044 	movi	r18,1
  80384c:	003f2606 	br	8034e8 <__subsf3+0x94>
  803850:	00c00804 	movi	r3,32
  803854:	1ac7c83a 	sub	r3,r3,r11
  803858:	40c6983a 	sll	r3,r8,r3
  80385c:	42d0d83a 	srl	r8,r8,r11
  803860:	1808c03a 	cmpne	r4,r3,zero
  803864:	2208b03a 	or	r4,r4,r8
  803868:	003fc406 	br	80377c <__subsf3+0x328>
  80386c:	0007883a 	mov	r3,zero
  803870:	003f3806 	br	803554 <__subsf3+0x100>
  803874:	483f9426 	beq	r9,zero,8036c8 <__subsf3+0x274>
  803878:	2100102c 	andhi	r4,r4,64
  80387c:	203f9226 	beq	r4,zero,8036c8 <__subsf3+0x274>
  803880:	38c0102c 	andhi	r3,r7,64
  803884:	183f901e 	bne	r3,zero,8036c8 <__subsf3+0x274>
  803888:	1023883a 	mov	r17,r2
  80388c:	3819883a 	mov	r12,r7
  803890:	003f8d06 	br	8036c8 <__subsf3+0x274>
  803894:	01000804 	movi	r4,32
  803898:	22c9c83a 	sub	r4,r4,r11
  80389c:	4106983a 	sll	r3,r8,r4
  8038a0:	42d0d83a 	srl	r8,r8,r11
  8038a4:	1808c03a 	cmpne	r4,r3,zero
  8038a8:	2208b03a 	or	r4,r4,r8
  8038ac:	003f9606 	br	803708 <__subsf3+0x2b4>
  8038b0:	04800044 	movi	r18,1
  8038b4:	003f7806 	br	803698 <__subsf3+0x244>
  8038b8:	483fb726 	beq	r9,zero,803798 <__subsf3+0x344>
  8038bc:	1023883a 	mov	r17,r2
  8038c0:	3809883a 	mov	r4,r7
  8038c4:	003f2306 	br	803554 <__subsf3+0x100>
  8038c8:	4a09c83a 	sub	r4,r9,r8
  8038cc:	04800044 	movi	r18,1
  8038d0:	003f0506 	br	8034e8 <__subsf3+0x94>
  8038d4:	3809883a 	mov	r4,r7
  8038d8:	0007883a 	mov	r3,zero
  8038dc:	003f1d06 	br	803554 <__subsf3+0x100>
  8038e0:	203fad26 	beq	r4,zero,803798 <__subsf3+0x344>
  8038e4:	003f6c06 	br	803698 <__subsf3+0x244>

008038e8 <__adddf3>:
  8038e8:	02000434 	movhi	r8,16
  8038ec:	423fffc4 	addi	r8,r8,-1
  8038f0:	2806d53a 	srli	r3,r5,20
  8038f4:	3804d53a 	srli	r2,r7,20
  8038f8:	2a14703a 	and	r10,r5,r8
  8038fc:	3a12703a 	and	r9,r7,r8
  803900:	280ad7fa 	srli	r5,r5,31
  803904:	501490fa 	slli	r10,r10,3
  803908:	2018d77a 	srli	r12,r4,29
  80390c:	481290fa 	slli	r9,r9,3
  803910:	3016d77a 	srli	r11,r6,29
  803914:	380ed7fa 	srli	r7,r7,31
  803918:	defffb04 	addi	sp,sp,-20
  80391c:	dc800215 	stw	r18,8(sp)
  803920:	dc000015 	stw	r16,0(sp)
  803924:	1c81ffcc 	andi	r18,r3,2047
  803928:	1081ffcc 	andi	r2,r2,2047
  80392c:	dfc00415 	stw	ra,16(sp)
  803930:	dcc00315 	stw	r19,12(sp)
  803934:	dc400115 	stw	r17,4(sp)
  803938:	201c90fa 	slli	r14,r4,3
  80393c:	301a90fa 	slli	r13,r6,3
  803940:	2821883a 	mov	r16,r5
  803944:	6294b03a 	or	r10,r12,r10
  803948:	5a52b03a 	or	r9,r11,r9
  80394c:	9087c83a 	sub	r3,r18,r2
  803950:	29c06126 	beq	r5,r7,803ad8 <__adddf3+0x1f0>
  803954:	00c0550e 	bge	zero,r3,803aac <__adddf3+0x1c4>
  803958:	10007326 	beq	r2,zero,803b28 <__adddf3+0x240>
  80395c:	9081ffd8 	cmpnei	r2,r18,2047
  803960:	1000bd26 	beq	r2,zero,803c58 <__adddf3+0x370>
  803964:	4a402034 	orhi	r9,r9,128
  803968:	18800e48 	cmpgei	r2,r3,57
  80396c:	1000ef1e 	bne	r2,zero,803d2c <__adddf3+0x444>
  803970:	18800808 	cmpgei	r2,r3,32
  803974:	1001321e 	bne	r2,zero,803e40 <__adddf3+0x558>
  803978:	00800804 	movi	r2,32
  80397c:	10c5c83a 	sub	r2,r2,r3
  803980:	68c8d83a 	srl	r4,r13,r3
  803984:	48a2983a 	sll	r17,r9,r2
  803988:	689a983a 	sll	r13,r13,r2
  80398c:	48c6d83a 	srl	r3,r9,r3
  803990:	8922b03a 	or	r17,r17,r4
  803994:	681ac03a 	cmpne	r13,r13,zero
  803998:	8b62b03a 	or	r17,r17,r13
  80399c:	50d5c83a 	sub	r10,r10,r3
  8039a0:	7463c83a 	sub	r17,r14,r17
  8039a4:	7451803a 	cmpltu	r8,r14,r17
  8039a8:	5211c83a 	sub	r8,r10,r8
  8039ac:	4080202c 	andhi	r2,r8,128
  8039b0:	10008d26 	beq	r2,zero,803be8 <__adddf3+0x300>
  8039b4:	02402034 	movhi	r9,128
  8039b8:	4a7fffc4 	addi	r9,r9,-1
  8039bc:	4266703a 	and	r19,r8,r9
  8039c0:	9800b326 	beq	r19,zero,803c90 <__adddf3+0x3a8>
  8039c4:	9809883a 	mov	r4,r19
  8039c8:	08057d40 	call	8057d4 <__clzsi2>
  8039cc:	10fffe04 	addi	r3,r2,-8
  8039d0:	02000804 	movi	r8,32
  8039d4:	40d1c83a 	sub	r8,r8,r3
  8039d8:	8a10d83a 	srl	r8,r17,r8
  8039dc:	98d2983a 	sll	r9,r19,r3
  8039e0:	88e2983a 	sll	r17,r17,r3
  8039e4:	4250b03a 	or	r8,r8,r9
  8039e8:	1c80b216 	blt	r3,r18,803cb4 <__adddf3+0x3cc>
  8039ec:	1c87c83a 	sub	r3,r3,r18
  8039f0:	19000044 	addi	r4,r3,1
  8039f4:	20800808 	cmpgei	r2,r4,32
  8039f8:	10006f1e 	bne	r2,zero,803bb8 <__adddf3+0x2d0>
  8039fc:	00800804 	movi	r2,32
  803a00:	1105c83a 	sub	r2,r2,r4
  803a04:	8906d83a 	srl	r3,r17,r4
  803a08:	88a2983a 	sll	r17,r17,r2
  803a0c:	4084983a 	sll	r2,r8,r2
  803a10:	4110d83a 	srl	r8,r8,r4
  803a14:	8822c03a 	cmpne	r17,r17,zero
  803a18:	10c4b03a 	or	r2,r2,r3
  803a1c:	1462b03a 	or	r17,r2,r17
  803a20:	0025883a 	mov	r18,zero
  803a24:	888001cc 	andi	r2,r17,7
  803a28:	10000726 	beq	r2,zero,803a48 <__adddf3+0x160>
  803a2c:	888003cc 	andi	r2,r17,15
  803a30:	10800120 	cmpeqi	r2,r2,4
  803a34:	1000041e 	bne	r2,zero,803a48 <__adddf3+0x160>
  803a38:	88c00104 	addi	r3,r17,4
  803a3c:	1c63803a 	cmpltu	r17,r3,r17
  803a40:	4451883a 	add	r8,r8,r17
  803a44:	1823883a 	mov	r17,r3
  803a48:	4080202c 	andhi	r2,r8,128
  803a4c:	10006826 	beq	r2,zero,803bf0 <__adddf3+0x308>
  803a50:	90c00044 	addi	r3,r18,1
  803a54:	1881ffe0 	cmpeqi	r2,r3,2047
  803a58:	18c1ffcc 	andi	r3,r3,2047
  803a5c:	10007a1e 	bne	r2,zero,803c48 <__adddf3+0x360>
  803a60:	00bfe034 	movhi	r2,65408
  803a64:	10bfffc4 	addi	r2,r2,-1
  803a68:	4090703a 	and	r8,r8,r2
  803a6c:	4004977a 	slli	r2,r8,29
  803a70:	4010927a 	slli	r8,r8,9
  803a74:	8822d0fa 	srli	r17,r17,3
  803a78:	4010d33a 	srli	r8,r8,12
  803a7c:	1444b03a 	or	r2,r2,r17
  803a80:	1806953a 	slli	r3,r3,20
  803a84:	802097fa 	slli	r16,r16,31
  803a88:	1a06b03a 	or	r3,r3,r8
  803a8c:	1c06b03a 	or	r3,r3,r16
  803a90:	dfc00417 	ldw	ra,16(sp)
  803a94:	dcc00317 	ldw	r19,12(sp)
  803a98:	dc800217 	ldw	r18,8(sp)
  803a9c:	dc400117 	ldw	r17,4(sp)
  803aa0:	dc000017 	ldw	r16,0(sp)
  803aa4:	dec00504 	addi	sp,sp,20
  803aa8:	f800283a 	ret
  803aac:	18002626 	beq	r3,zero,803b48 <__adddf3+0x260>
  803ab0:	1487c83a 	sub	r3,r2,r18
  803ab4:	9000ba1e 	bne	r18,zero,803da0 <__adddf3+0x4b8>
  803ab8:	5388b03a 	or	r4,r10,r14
  803abc:	20011826 	beq	r4,zero,803f20 <__adddf3+0x638>
  803ac0:	193fffc4 	addi	r4,r3,-1
  803ac4:	20015726 	beq	r4,zero,804024 <__adddf3+0x73c>
  803ac8:	18c1ffd8 	cmpnei	r3,r3,2047
  803acc:	18013026 	beq	r3,zero,803f90 <__adddf3+0x6a8>
  803ad0:	2007883a 	mov	r3,r4
  803ad4:	0000b506 	br	803dac <__adddf3+0x4c4>
  803ad8:	00c07b0e 	bge	zero,r3,803cc8 <__adddf3+0x3e0>
  803adc:	10002e26 	beq	r2,zero,803b98 <__adddf3+0x2b0>
  803ae0:	9081ffd8 	cmpnei	r2,r18,2047
  803ae4:	10005c26 	beq	r2,zero,803c58 <__adddf3+0x370>
  803ae8:	4a402034 	orhi	r9,r9,128
  803aec:	18800e48 	cmpgei	r2,r3,57
  803af0:	10004b1e 	bne	r2,zero,803c20 <__adddf3+0x338>
  803af4:	18800808 	cmpgei	r2,r3,32
  803af8:	1000ec26 	beq	r2,zero,803eac <__adddf3+0x5c4>
  803afc:	1c7ff804 	addi	r17,r3,-32
  803b00:	19000820 	cmpeqi	r4,r3,32
  803b04:	4c44d83a 	srl	r2,r9,r17
  803b08:	2000041e 	bne	r4,zero,803b1c <__adddf3+0x234>
  803b0c:	01001004 	movi	r4,64
  803b10:	20c7c83a 	sub	r3,r4,r3
  803b14:	48d2983a 	sll	r9,r9,r3
  803b18:	6a5ab03a 	or	r13,r13,r9
  803b1c:	6822c03a 	cmpne	r17,r13,zero
  803b20:	88a2b03a 	or	r17,r17,r2
  803b24:	00004006 	br	803c28 <__adddf3+0x340>
  803b28:	4b44b03a 	or	r2,r9,r13
  803b2c:	10008226 	beq	r2,zero,803d38 <__adddf3+0x450>
  803b30:	18bfffc4 	addi	r2,r3,-1
  803b34:	10011026 	beq	r2,zero,803f78 <__adddf3+0x690>
  803b38:	18c1ffd8 	cmpnei	r3,r3,2047
  803b3c:	18004626 	beq	r3,zero,803c58 <__adddf3+0x370>
  803b40:	1007883a 	mov	r3,r2
  803b44:	003f8806 	br	803968 <__adddf3+0x80>
  803b48:	90800044 	addi	r2,r18,1
  803b4c:	1081ff8c 	andi	r2,r2,2046
  803b50:	1000a51e 	bne	r2,zero,803de8 <__adddf3+0x500>
  803b54:	538ab03a 	or	r5,r10,r14
  803b58:	4b44b03a 	or	r2,r9,r13
  803b5c:	9000f81e 	bne	r18,zero,803f40 <__adddf3+0x658>
  803b60:	28013726 	beq	r5,zero,804040 <__adddf3+0x758>
  803b64:	10011226 	beq	r2,zero,803fb0 <__adddf3+0x6c8>
  803b68:	7363c83a 	sub	r17,r14,r13
  803b6c:	7445803a 	cmpltu	r2,r14,r17
  803b70:	5251c83a 	sub	r8,r10,r9
  803b74:	4091c83a 	sub	r8,r8,r2
  803b78:	4080202c 	andhi	r2,r8,128
  803b7c:	10018f26 	beq	r2,zero,8041bc <__adddf3+0x8d4>
  803b80:	6ba3c83a 	sub	r17,r13,r14
  803b84:	4a95c83a 	sub	r10,r9,r10
  803b88:	6c51803a 	cmpltu	r8,r13,r17
  803b8c:	5211c83a 	sub	r8,r10,r8
  803b90:	3821883a 	mov	r16,r7
  803b94:	003fa306 	br	803a24 <__adddf3+0x13c>
  803b98:	4b44b03a 	or	r2,r9,r13
  803b9c:	10006626 	beq	r2,zero,803d38 <__adddf3+0x450>
  803ba0:	18bfffc4 	addi	r2,r3,-1
  803ba4:	1000ec26 	beq	r2,zero,803f58 <__adddf3+0x670>
  803ba8:	18c1ffd8 	cmpnei	r3,r3,2047
  803bac:	18012d26 	beq	r3,zero,804064 <__adddf3+0x77c>
  803bb0:	1007883a 	mov	r3,r2
  803bb4:	003fcd06 	br	803aec <__adddf3+0x204>
  803bb8:	18fff844 	addi	r3,r3,-31
  803bbc:	20800820 	cmpeqi	r2,r4,32
  803bc0:	40c6d83a 	srl	r3,r8,r3
  803bc4:	1000041e 	bne	r2,zero,803bd8 <__adddf3+0x2f0>
  803bc8:	00801004 	movi	r2,64
  803bcc:	1109c83a 	sub	r4,r2,r4
  803bd0:	4110983a 	sll	r8,r8,r4
  803bd4:	8a22b03a 	or	r17,r17,r8
  803bd8:	8822c03a 	cmpne	r17,r17,zero
  803bdc:	88e2b03a 	or	r17,r17,r3
  803be0:	0011883a 	mov	r8,zero
  803be4:	0025883a 	mov	r18,zero
  803be8:	888001cc 	andi	r2,r17,7
  803bec:	103f8f1e 	bne	r2,zero,803a2c <__adddf3+0x144>
  803bf0:	8822d0fa 	srli	r17,r17,3
  803bf4:	4004977a 	slli	r2,r8,29
  803bf8:	4014d0fa 	srli	r10,r8,3
  803bfc:	9007883a 	mov	r3,r18
  803c00:	8884b03a 	or	r2,r17,r2
  803c04:	1901ffe0 	cmpeqi	r4,r3,2047
  803c08:	2000191e 	bne	r4,zero,803c70 <__adddf3+0x388>
  803c0c:	02000434 	movhi	r8,16
  803c10:	423fffc4 	addi	r8,r8,-1
  803c14:	5210703a 	and	r8,r10,r8
  803c18:	18c1ffcc 	andi	r3,r3,2047
  803c1c:	003f9806 	br	803a80 <__adddf3+0x198>
  803c20:	4b62b03a 	or	r17,r9,r13
  803c24:	8822c03a 	cmpne	r17,r17,zero
  803c28:	8ba3883a 	add	r17,r17,r14
  803c2c:	8b91803a 	cmpltu	r8,r17,r14
  803c30:	4291883a 	add	r8,r8,r10
  803c34:	4080202c 	andhi	r2,r8,128
  803c38:	103feb26 	beq	r2,zero,803be8 <__adddf3+0x300>
  803c3c:	94800044 	addi	r18,r18,1
  803c40:	9081ffe0 	cmpeqi	r2,r18,2047
  803c44:	10007426 	beq	r2,zero,803e18 <__adddf3+0x530>
  803c48:	00c1ffc4 	movi	r3,2047
  803c4c:	0011883a 	mov	r8,zero
  803c50:	0005883a 	mov	r2,zero
  803c54:	003f8a06 	br	803a80 <__adddf3+0x198>
  803c58:	500a977a 	slli	r5,r10,29
  803c5c:	00c80034 	movhi	r3,8192
  803c60:	18ffffc4 	addi	r3,r3,-1
  803c64:	5014d0fa 	srli	r10,r10,3
  803c68:	20c4703a 	and	r2,r4,r3
  803c6c:	1144b03a 	or	r2,r2,r5
  803c70:	1286b03a 	or	r3,r2,r10
  803c74:	18015426 	beq	r3,zero,8041c8 <__adddf3+0x8e0>
  803c78:	00c00434 	movhi	r3,16
  803c7c:	18ffffc4 	addi	r3,r3,-1
  803c80:	52000234 	orhi	r8,r10,8
  803c84:	40d0703a 	and	r8,r8,r3
  803c88:	00c1ffc4 	movi	r3,2047
  803c8c:	003f7c06 	br	803a80 <__adddf3+0x198>
  803c90:	8809883a 	mov	r4,r17
  803c94:	08057d40 	call	8057d4 <__clzsi2>
  803c98:	10c00604 	addi	r3,r2,24
  803c9c:	19000808 	cmpgei	r4,r3,32
  803ca0:	203f4b26 	beq	r4,zero,8039d0 <__adddf3+0xe8>
  803ca4:	123ffe04 	addi	r8,r2,-8
  803ca8:	8a10983a 	sll	r8,r17,r8
  803cac:	0023883a 	mov	r17,zero
  803cb0:	1cbf4e0e 	bge	r3,r18,8039ec <__adddf3+0x104>
  803cb4:	00bfe034 	movhi	r2,65408
  803cb8:	10bfffc4 	addi	r2,r2,-1
  803cbc:	90e5c83a 	sub	r18,r18,r3
  803cc0:	4090703a 	and	r8,r8,r2
  803cc4:	003f5706 	br	803a24 <__adddf3+0x13c>
  803cc8:	18002226 	beq	r3,zero,803d54 <__adddf3+0x46c>
  803ccc:	1487c83a 	sub	r3,r2,r18
  803cd0:	90006e26 	beq	r18,zero,803e8c <__adddf3+0x5a4>
  803cd4:	1101ffd8 	cmpnei	r4,r2,2047
  803cd8:	2000e926 	beq	r4,zero,804080 <__adddf3+0x798>
  803cdc:	52802034 	orhi	r10,r10,128
  803ce0:	19000e48 	cmpgei	r4,r3,57
  803ce4:	2000b91e 	bne	r4,zero,803fcc <__adddf3+0x6e4>
  803ce8:	19000808 	cmpgei	r4,r3,32
  803cec:	2001101e 	bne	r4,zero,804130 <__adddf3+0x848>
  803cf0:	01000804 	movi	r4,32
  803cf4:	20c9c83a 	sub	r4,r4,r3
  803cf8:	5122983a 	sll	r17,r10,r4
  803cfc:	70cad83a 	srl	r5,r14,r3
  803d00:	7108983a 	sll	r4,r14,r4
  803d04:	50d4d83a 	srl	r10,r10,r3
  803d08:	8962b03a 	or	r17,r17,r5
  803d0c:	2008c03a 	cmpne	r4,r4,zero
  803d10:	8922b03a 	or	r17,r17,r4
  803d14:	4a93883a 	add	r9,r9,r10
  803d18:	8b63883a 	add	r17,r17,r13
  803d1c:	8b51803a 	cmpltu	r8,r17,r13
  803d20:	4251883a 	add	r8,r8,r9
  803d24:	1025883a 	mov	r18,r2
  803d28:	003fc206 	br	803c34 <__adddf3+0x34c>
  803d2c:	4b62b03a 	or	r17,r9,r13
  803d30:	8822c03a 	cmpne	r17,r17,zero
  803d34:	003f1a06 	br	8039a0 <__adddf3+0xb8>
  803d38:	500c977a 	slli	r6,r10,29
  803d3c:	01480034 	movhi	r5,8192
  803d40:	297fffc4 	addi	r5,r5,-1
  803d44:	2144703a 	and	r2,r4,r5
  803d48:	5014d0fa 	srli	r10,r10,3
  803d4c:	1184b03a 	or	r2,r2,r6
  803d50:	003fac06 	br	803c04 <__adddf3+0x31c>
  803d54:	90800044 	addi	r2,r18,1
  803d58:	1141ff8c 	andi	r5,r2,2046
  803d5c:	28005e1e 	bne	r5,zero,803ed8 <__adddf3+0x5f0>
  803d60:	5384b03a 	or	r2,r10,r14
  803d64:	9000a71e 	bne	r18,zero,804004 <__adddf3+0x71c>
  803d68:	1000e526 	beq	r2,zero,804100 <__adddf3+0x818>
  803d6c:	4b44b03a 	or	r2,r9,r13
  803d70:	10008f26 	beq	r2,zero,803fb0 <__adddf3+0x6c8>
  803d74:	7363883a 	add	r17,r14,r13
  803d78:	5255883a 	add	r10,r10,r9
  803d7c:	8b91803a 	cmpltu	r8,r17,r14
  803d80:	5211883a 	add	r8,r10,r8
  803d84:	4080202c 	andhi	r2,r8,128
  803d88:	103f9726 	beq	r2,zero,803be8 <__adddf3+0x300>
  803d8c:	00bfe034 	movhi	r2,65408
  803d90:	10bfffc4 	addi	r2,r2,-1
  803d94:	4090703a 	and	r8,r8,r2
  803d98:	04800044 	movi	r18,1
  803d9c:	003f9206 	br	803be8 <__adddf3+0x300>
  803da0:	1101ffd8 	cmpnei	r4,r2,2047
  803da4:	20007a26 	beq	r4,zero,803f90 <__adddf3+0x6a8>
  803da8:	52802034 	orhi	r10,r10,128
  803dac:	19000e48 	cmpgei	r4,r3,57
  803db0:	20002e1e 	bne	r4,zero,803e6c <__adddf3+0x584>
  803db4:	19000808 	cmpgei	r4,r3,32
  803db8:	2000871e 	bne	r4,zero,803fd8 <__adddf3+0x6f0>
  803dbc:	01000804 	movi	r4,32
  803dc0:	20c9c83a 	sub	r4,r4,r3
  803dc4:	5122983a 	sll	r17,r10,r4
  803dc8:	70cad83a 	srl	r5,r14,r3
  803dcc:	711c983a 	sll	r14,r14,r4
  803dd0:	50d4d83a 	srl	r10,r10,r3
  803dd4:	8962b03a 	or	r17,r17,r5
  803dd8:	701cc03a 	cmpne	r14,r14,zero
  803ddc:	8ba2b03a 	or	r17,r17,r14
  803de0:	4a93c83a 	sub	r9,r9,r10
  803de4:	00002306 	br	803e74 <__adddf3+0x58c>
  803de8:	7363c83a 	sub	r17,r14,r13
  803dec:	5267c83a 	sub	r19,r10,r9
  803df0:	7451803a 	cmpltu	r8,r14,r17
  803df4:	9a27c83a 	sub	r19,r19,r8
  803df8:	9880202c 	andhi	r2,r19,128
  803dfc:	1000421e 	bne	r2,zero,803f08 <__adddf3+0x620>
  803e00:	8cc4b03a 	or	r2,r17,r19
  803e04:	103eee1e 	bne	r2,zero,8039c0 <__adddf3+0xd8>
  803e08:	0015883a 	mov	r10,zero
  803e0c:	0021883a 	mov	r16,zero
  803e10:	003f7e06 	br	803c0c <__adddf3+0x324>
  803e14:	04800084 	movi	r18,2
  803e18:	00bfe034 	movhi	r2,65408
  803e1c:	10bfffc4 	addi	r2,r2,-1
  803e20:	8806d07a 	srli	r3,r17,1
  803e24:	4090703a 	and	r8,r8,r2
  803e28:	400497fa 	slli	r2,r8,31
  803e2c:	8c40004c 	andi	r17,r17,1
  803e30:	1c62b03a 	or	r17,r3,r17
  803e34:	4010d07a 	srli	r8,r8,1
  803e38:	1462b03a 	or	r17,r2,r17
  803e3c:	003ef906 	br	803a24 <__adddf3+0x13c>
  803e40:	1c7ff804 	addi	r17,r3,-32
  803e44:	19000820 	cmpeqi	r4,r3,32
  803e48:	4c44d83a 	srl	r2,r9,r17
  803e4c:	2000041e 	bne	r4,zero,803e60 <__adddf3+0x578>
  803e50:	01001004 	movi	r4,64
  803e54:	20c7c83a 	sub	r3,r4,r3
  803e58:	48d2983a 	sll	r9,r9,r3
  803e5c:	6a5ab03a 	or	r13,r13,r9
  803e60:	6822c03a 	cmpne	r17,r13,zero
  803e64:	88a2b03a 	or	r17,r17,r2
  803e68:	003ecd06 	br	8039a0 <__adddf3+0xb8>
  803e6c:	5394b03a 	or	r10,r10,r14
  803e70:	5022c03a 	cmpne	r17,r10,zero
  803e74:	6c63c83a 	sub	r17,r13,r17
  803e78:	6c51803a 	cmpltu	r8,r13,r17
  803e7c:	4a11c83a 	sub	r8,r9,r8
  803e80:	3821883a 	mov	r16,r7
  803e84:	1025883a 	mov	r18,r2
  803e88:	003ec806 	br	8039ac <__adddf3+0xc4>
  803e8c:	5388b03a 	or	r4,r10,r14
  803e90:	20008226 	beq	r4,zero,80409c <__adddf3+0x7b4>
  803e94:	193fffc4 	addi	r4,r3,-1
  803e98:	2000b026 	beq	r4,zero,80415c <__adddf3+0x874>
  803e9c:	18c1ffd8 	cmpnei	r3,r3,2047
  803ea0:	18007726 	beq	r3,zero,804080 <__adddf3+0x798>
  803ea4:	2007883a 	mov	r3,r4
  803ea8:	003f8d06 	br	803ce0 <__adddf3+0x3f8>
  803eac:	00800804 	movi	r2,32
  803eb0:	10c5c83a 	sub	r2,r2,r3
  803eb4:	68c8d83a 	srl	r4,r13,r3
  803eb8:	48a2983a 	sll	r17,r9,r2
  803ebc:	689a983a 	sll	r13,r13,r2
  803ec0:	48c6d83a 	srl	r3,r9,r3
  803ec4:	8922b03a 	or	r17,r17,r4
  803ec8:	681ac03a 	cmpne	r13,r13,zero
  803ecc:	8b62b03a 	or	r17,r17,r13
  803ed0:	50d5883a 	add	r10,r10,r3
  803ed4:	003f5406 	br	803c28 <__adddf3+0x340>
  803ed8:	10c1ffe0 	cmpeqi	r3,r2,2047
  803edc:	183f5a1e 	bne	r3,zero,803c48 <__adddf3+0x360>
  803ee0:	7351883a 	add	r8,r14,r13
  803ee4:	4387803a 	cmpltu	r3,r8,r14
  803ee8:	5255883a 	add	r10,r10,r9
  803eec:	50c7883a 	add	r3,r10,r3
  803ef0:	401ad07a 	srli	r13,r8,1
  803ef4:	182297fa 	slli	r17,r3,31
  803ef8:	1810d07a 	srli	r8,r3,1
  803efc:	1025883a 	mov	r18,r2
  803f00:	8b62b03a 	or	r17,r17,r13
  803f04:	003f3806 	br	803be8 <__adddf3+0x300>
  803f08:	6ba3c83a 	sub	r17,r13,r14
  803f0c:	4a93c83a 	sub	r9,r9,r10
  803f10:	6c51803a 	cmpltu	r8,r13,r17
  803f14:	4a27c83a 	sub	r19,r9,r8
  803f18:	3821883a 	mov	r16,r7
  803f1c:	003ea806 	br	8039c0 <__adddf3+0xd8>
  803f20:	480a977a 	slli	r5,r9,29
  803f24:	01080034 	movhi	r4,8192
  803f28:	213fffc4 	addi	r4,r4,-1
  803f2c:	3104703a 	and	r2,r6,r4
  803f30:	4814d0fa 	srli	r10,r9,3
  803f34:	1144b03a 	or	r2,r2,r5
  803f38:	3821883a 	mov	r16,r7
  803f3c:	003f3106 	br	803c04 <__adddf3+0x31c>
  803f40:	28005d1e 	bne	r5,zero,8040b8 <__adddf3+0x7d0>
  803f44:	1000121e 	bne	r2,zero,803f90 <__adddf3+0x6a8>
  803f48:	0021883a 	mov	r16,zero
  803f4c:	4015883a 	mov	r10,r8
  803f50:	00bfffc4 	movi	r2,-1
  803f54:	003f4806 	br	803c78 <__adddf3+0x390>
  803f58:	7363883a 	add	r17,r14,r13
  803f5c:	5255883a 	add	r10,r10,r9
  803f60:	8b91803a 	cmpltu	r8,r17,r14
  803f64:	5211883a 	add	r8,r10,r8
  803f68:	4080202c 	andhi	r2,r8,128
  803f6c:	103fa91e 	bne	r2,zero,803e14 <__adddf3+0x52c>
  803f70:	04800044 	movi	r18,1
  803f74:	003f1c06 	br	803be8 <__adddf3+0x300>
  803f78:	7363c83a 	sub	r17,r14,r13
  803f7c:	5255c83a 	sub	r10,r10,r9
  803f80:	7451803a 	cmpltu	r8,r14,r17
  803f84:	5211c83a 	sub	r8,r10,r8
  803f88:	04800044 	movi	r18,1
  803f8c:	003e8706 	br	8039ac <__adddf3+0xc4>
  803f90:	4806977a 	slli	r3,r9,29
  803f94:	00880034 	movhi	r2,8192
  803f98:	10bfffc4 	addi	r2,r2,-1
  803f9c:	3084703a 	and	r2,r6,r2
  803fa0:	4814d0fa 	srli	r10,r9,3
  803fa4:	10c4b03a 	or	r2,r2,r3
  803fa8:	3821883a 	mov	r16,r7
  803fac:	003f3006 	br	803c70 <__adddf3+0x388>
  803fb0:	500a977a 	slli	r5,r10,29
  803fb4:	00880034 	movhi	r2,8192
  803fb8:	10bfffc4 	addi	r2,r2,-1
  803fbc:	2084703a 	and	r2,r4,r2
  803fc0:	5014d0fa 	srli	r10,r10,3
  803fc4:	1144b03a 	or	r2,r2,r5
  803fc8:	003f1006 	br	803c0c <__adddf3+0x324>
  803fcc:	5394b03a 	or	r10,r10,r14
  803fd0:	5022c03a 	cmpne	r17,r10,zero
  803fd4:	003f5006 	br	803d18 <__adddf3+0x430>
  803fd8:	1c7ff804 	addi	r17,r3,-32
  803fdc:	19400820 	cmpeqi	r5,r3,32
  803fe0:	5448d83a 	srl	r4,r10,r17
  803fe4:	2800041e 	bne	r5,zero,803ff8 <__adddf3+0x710>
  803fe8:	01401004 	movi	r5,64
  803fec:	28c7c83a 	sub	r3,r5,r3
  803ff0:	50d4983a 	sll	r10,r10,r3
  803ff4:	729cb03a 	or	r14,r14,r10
  803ff8:	7022c03a 	cmpne	r17,r14,zero
  803ffc:	8922b03a 	or	r17,r17,r4
  804000:	003f9c06 	br	803e74 <__adddf3+0x58c>
  804004:	10005a1e 	bne	r2,zero,804170 <__adddf3+0x888>
  804008:	4804977a 	slli	r2,r9,29
  80400c:	00c80034 	movhi	r3,8192
  804010:	18ffffc4 	addi	r3,r3,-1
  804014:	30cc703a 	and	r6,r6,r3
  804018:	4814d0fa 	srli	r10,r9,3
  80401c:	1184b03a 	or	r2,r2,r6
  804020:	003f1306 	br	803c70 <__adddf3+0x388>
  804024:	6ba3c83a 	sub	r17,r13,r14
  804028:	4a95c83a 	sub	r10,r9,r10
  80402c:	6c51803a 	cmpltu	r8,r13,r17
  804030:	5211c83a 	sub	r8,r10,r8
  804034:	3821883a 	mov	r16,r7
  804038:	04800044 	movi	r18,1
  80403c:	003e5b06 	br	8039ac <__adddf3+0xc4>
  804040:	103f7126 	beq	r2,zero,803e08 <__adddf3+0x520>
  804044:	4808977a 	slli	r4,r9,29
  804048:	00880034 	movhi	r2,8192
  80404c:	10bfffc4 	addi	r2,r2,-1
  804050:	3084703a 	and	r2,r6,r2
  804054:	4814d0fa 	srli	r10,r9,3
  804058:	1104b03a 	or	r2,r2,r4
  80405c:	3821883a 	mov	r16,r7
  804060:	003eea06 	br	803c0c <__adddf3+0x324>
  804064:	5006977a 	slli	r3,r10,29
  804068:	00880034 	movhi	r2,8192
  80406c:	10bfffc4 	addi	r2,r2,-1
  804070:	2084703a 	and	r2,r4,r2
  804074:	5014d0fa 	srli	r10,r10,3
  804078:	10c4b03a 	or	r2,r2,r3
  80407c:	003efc06 	br	803c70 <__adddf3+0x388>
  804080:	4806977a 	slli	r3,r9,29
  804084:	00880034 	movhi	r2,8192
  804088:	10bfffc4 	addi	r2,r2,-1
  80408c:	3084703a 	and	r2,r6,r2
  804090:	4814d0fa 	srli	r10,r9,3
  804094:	10c4b03a 	or	r2,r2,r3
  804098:	003ef506 	br	803c70 <__adddf3+0x388>
  80409c:	4808977a 	slli	r4,r9,29
  8040a0:	00880034 	movhi	r2,8192
  8040a4:	10bfffc4 	addi	r2,r2,-1
  8040a8:	3084703a 	and	r2,r6,r2
  8040ac:	4814d0fa 	srli	r10,r9,3
  8040b0:	1104b03a 	or	r2,r2,r4
  8040b4:	003ed306 	br	803c04 <__adddf3+0x31c>
  8040b8:	500a977a 	slli	r5,r10,29
  8040bc:	5014d0fa 	srli	r10,r10,3
  8040c0:	10001626 	beq	r2,zero,80411c <__adddf3+0x834>
  8040c4:	00c80034 	movhi	r3,8192
  8040c8:	18ffffc4 	addi	r3,r3,-1
  8040cc:	20c4703a 	and	r2,r4,r3
  8040d0:	5100022c 	andhi	r4,r10,8
  8040d4:	1144b03a 	or	r2,r2,r5
  8040d8:	203ee526 	beq	r4,zero,803c70 <__adddf3+0x388>
  8040dc:	4808d0fa 	srli	r4,r9,3
  8040e0:	2140022c 	andhi	r5,r4,8
  8040e4:	283ee21e 	bne	r5,zero,803c70 <__adddf3+0x388>
  8040e8:	4812977a 	slli	r9,r9,29
  8040ec:	30c4703a 	and	r2,r6,r3
  8040f0:	3821883a 	mov	r16,r7
  8040f4:	1244b03a 	or	r2,r2,r9
  8040f8:	2015883a 	mov	r10,r4
  8040fc:	003edc06 	br	803c70 <__adddf3+0x388>
  804100:	4804977a 	slli	r2,r9,29
  804104:	01080034 	movhi	r4,8192
  804108:	213fffc4 	addi	r4,r4,-1
  80410c:	310c703a 	and	r6,r6,r4
  804110:	4814d0fa 	srli	r10,r9,3
  804114:	1184b03a 	or	r2,r2,r6
  804118:	003ebc06 	br	803c0c <__adddf3+0x324>
  80411c:	00880034 	movhi	r2,8192
  804120:	10bfffc4 	addi	r2,r2,-1
  804124:	2084703a 	and	r2,r4,r2
  804128:	1144b03a 	or	r2,r2,r5
  80412c:	003ed006 	br	803c70 <__adddf3+0x388>
  804130:	193ff804 	addi	r4,r3,-32
  804134:	19400820 	cmpeqi	r5,r3,32
  804138:	5108d83a 	srl	r4,r10,r4
  80413c:	2800041e 	bne	r5,zero,804150 <__adddf3+0x868>
  804140:	01401004 	movi	r5,64
  804144:	28c7c83a 	sub	r3,r5,r3
  804148:	50d4983a 	sll	r10,r10,r3
  80414c:	729cb03a 	or	r14,r14,r10
  804150:	7022c03a 	cmpne	r17,r14,zero
  804154:	8922b03a 	or	r17,r17,r4
  804158:	003eef06 	br	803d18 <__adddf3+0x430>
  80415c:	7363883a 	add	r17,r14,r13
  804160:	5255883a 	add	r10,r10,r9
  804164:	8b51803a 	cmpltu	r8,r17,r13
  804168:	5211883a 	add	r8,r10,r8
  80416c:	003f7e06 	br	803f68 <__adddf3+0x680>
  804170:	4b50b03a 	or	r8,r9,r13
  804174:	500a977a 	slli	r5,r10,29
  804178:	5014d0fa 	srli	r10,r10,3
  80417c:	403fe726 	beq	r8,zero,80411c <__adddf3+0x834>
  804180:	00c80034 	movhi	r3,8192
  804184:	18ffffc4 	addi	r3,r3,-1
  804188:	20c4703a 	and	r2,r4,r3
  80418c:	5100022c 	andhi	r4,r10,8
  804190:	1144b03a 	or	r2,r2,r5
  804194:	203eb626 	beq	r4,zero,803c70 <__adddf3+0x388>
  804198:	4808d0fa 	srli	r4,r9,3
  80419c:	2140022c 	andhi	r5,r4,8
  8041a0:	283eb31e 	bne	r5,zero,803c70 <__adddf3+0x388>
  8041a4:	4804977a 	slli	r2,r9,29
  8041a8:	30cc703a 	and	r6,r6,r3
  8041ac:	3821883a 	mov	r16,r7
  8041b0:	3084b03a 	or	r2,r6,r2
  8041b4:	2015883a 	mov	r10,r4
  8041b8:	003ead06 	br	803c70 <__adddf3+0x388>
  8041bc:	8a04b03a 	or	r2,r17,r8
  8041c0:	103f1126 	beq	r2,zero,803e08 <__adddf3+0x520>
  8041c4:	003e8806 	br	803be8 <__adddf3+0x300>
  8041c8:	0005883a 	mov	r2,zero
  8041cc:	00c1ffc4 	movi	r3,2047
  8041d0:	0011883a 	mov	r8,zero
  8041d4:	003e2a06 	br	803a80 <__adddf3+0x198>

008041d8 <__eqdf2>:
  8041d8:	2810d53a 	srli	r8,r5,20
  8041dc:	3806d53a 	srli	r3,r7,20
  8041e0:	00800434 	movhi	r2,16
  8041e4:	4201ffcc 	andi	r8,r8,2047
  8041e8:	10bfffc4 	addi	r2,r2,-1
  8041ec:	4241ffd8 	cmpnei	r9,r8,2047
  8041f0:	2814d7fa 	srli	r10,r5,31
  8041f4:	3816d7fa 	srli	r11,r7,31
  8041f8:	288a703a 	and	r5,r5,r2
  8041fc:	388e703a 	and	r7,r7,r2
  804200:	1881ffcc 	andi	r2,r3,2047
  804204:	48000626 	beq	r9,zero,804220 <__eqdf2+0x48>
  804208:	10c1ffe0 	cmpeqi	r3,r2,2047
  80420c:	1800021e 	bne	r3,zero,804218 <__eqdf2+0x40>
  804210:	4080011e 	bne	r8,r2,804218 <__eqdf2+0x40>
  804214:	29c00826 	beq	r5,r7,804238 <__eqdf2+0x60>
  804218:	00800044 	movi	r2,1
  80421c:	f800283a 	ret
  804220:	2906b03a 	or	r3,r5,r4
  804224:	183ffc1e 	bne	r3,zero,804218 <__eqdf2+0x40>
  804228:	1081ffd8 	cmpnei	r2,r2,2047
  80422c:	103ffa1e 	bne	r2,zero,804218 <__eqdf2+0x40>
  804230:	398eb03a 	or	r7,r7,r6
  804234:	383ff81e 	bne	r7,zero,804218 <__eqdf2+0x40>
  804238:	21bff71e 	bne	r4,r6,804218 <__eqdf2+0x40>
  80423c:	52c00426 	beq	r10,r11,804250 <__eqdf2+0x78>
  804240:	403ff51e 	bne	r8,zero,804218 <__eqdf2+0x40>
  804244:	290ab03a 	or	r5,r5,r4
  804248:	2804c03a 	cmpne	r2,r5,zero
  80424c:	f800283a 	ret
  804250:	0005883a 	mov	r2,zero
  804254:	f800283a 	ret

00804258 <__gedf2>:
  804258:	2810d53a 	srli	r8,r5,20
  80425c:	3812d53a 	srli	r9,r7,20
  804260:	00c00434 	movhi	r3,16
  804264:	4201ffcc 	andi	r8,r8,2047
  804268:	18ffffc4 	addi	r3,r3,-1
  80426c:	4281ffd8 	cmpnei	r10,r8,2047
  804270:	2816d7fa 	srli	r11,r5,31
  804274:	3804d7fa 	srli	r2,r7,31
  804278:	28ca703a 	and	r5,r5,r3
  80427c:	38ce703a 	and	r7,r7,r3
  804280:	48c1ffcc 	andi	r3,r9,2047
  804284:	50000a26 	beq	r10,zero,8042b0 <__gedf2+0x58>
  804288:	1a41ffd8 	cmpnei	r9,r3,2047
  80428c:	48000c26 	beq	r9,zero,8042c0 <__gedf2+0x68>
  804290:	4000171e 	bne	r8,zero,8042f0 <__gedf2+0x98>
  804294:	2912b03a 	or	r9,r5,r4
  804298:	1800121e 	bne	r3,zero,8042e4 <__gedf2+0x8c>
  80429c:	3994b03a 	or	r10,r7,r6
  8042a0:	5000101e 	bne	r10,zero,8042e4 <__gedf2+0x8c>
  8042a4:	48000a1e 	bne	r9,zero,8042d0 <__gedf2+0x78>
  8042a8:	0005883a 	mov	r2,zero
  8042ac:	f800283a 	ret
  8042b0:	2912b03a 	or	r9,r5,r4
  8042b4:	48001d1e 	bne	r9,zero,80432c <__gedf2+0xd4>
  8042b8:	1a41ffe0 	cmpeqi	r9,r3,2047
  8042bc:	48000c26 	beq	r9,zero,8042f0 <__gedf2+0x98>
  8042c0:	3992b03a 	or	r9,r7,r6
  8042c4:	4800191e 	bne	r9,zero,80432c <__gedf2+0xd4>
  8042c8:	40000526 	beq	r8,zero,8042e0 <__gedf2+0x88>
  8042cc:	58800c26 	beq	r11,r2,804300 <__gedf2+0xa8>
  8042d0:	00800044 	movi	r2,1
  8042d4:	58000526 	beq	r11,zero,8042ec <__gedf2+0x94>
  8042d8:	00bfffc4 	movi	r2,-1
  8042dc:	f800283a 	ret
  8042e0:	2912b03a 	or	r9,r5,r4
  8042e4:	483ff91e 	bne	r9,zero,8042cc <__gedf2+0x74>
  8042e8:	103ffb26 	beq	r2,zero,8042d8 <__gedf2+0x80>
  8042ec:	f800283a 	ret
  8042f0:	183ff61e 	bne	r3,zero,8042cc <__gedf2+0x74>
  8042f4:	3992b03a 	or	r9,r7,r6
  8042f8:	483ff41e 	bne	r9,zero,8042cc <__gedf2+0x74>
  8042fc:	003ff406 	br	8042d0 <__gedf2+0x78>
  804300:	1a000716 	blt	r3,r8,804320 <__gedf2+0xc8>
  804304:	40fff816 	blt	r8,r3,8042e8 <__gedf2+0x90>
  804308:	397ff136 	bltu	r7,r5,8042d0 <__gedf2+0x78>
  80430c:	29c00926 	beq	r5,r7,804334 <__gedf2+0xdc>
  804310:	29ffe52e 	bgeu	r5,r7,8042a8 <__gedf2+0x50>
  804314:	583ff026 	beq	r11,zero,8042d8 <__gedf2+0x80>
  804318:	5805883a 	mov	r2,r11
  80431c:	f800283a 	ret
  804320:	103fed1e 	bne	r2,zero,8042d8 <__gedf2+0x80>
  804324:	00800044 	movi	r2,1
  804328:	f800283a 	ret
  80432c:	00bfff84 	movi	r2,-2
  804330:	f800283a 	ret
  804334:	313fe636 	bltu	r6,r4,8042d0 <__gedf2+0x78>
  804338:	21bfdb2e 	bgeu	r4,r6,8042a8 <__gedf2+0x50>
  80433c:	003ff506 	br	804314 <__gedf2+0xbc>

00804340 <__muldf3>:
  804340:	2810d53a 	srli	r8,r5,20
  804344:	defff004 	addi	sp,sp,-64
  804348:	00800434 	movhi	r2,16
  80434c:	df000e15 	stw	fp,56(sp)
  804350:	dd000a15 	stw	r20,40(sp)
  804354:	dcc00915 	stw	r19,36(sp)
  804358:	dc400715 	stw	r17,28(sp)
  80435c:	10bfffc4 	addi	r2,r2,-1
  804360:	dfc00f15 	stw	ra,60(sp)
  804364:	ddc00d15 	stw	r23,52(sp)
  804368:	dd800c15 	stw	r22,48(sp)
  80436c:	dd400b15 	stw	r21,44(sp)
  804370:	dc800815 	stw	r18,32(sp)
  804374:	dc000615 	stw	r16,24(sp)
  804378:	4201ffcc 	andi	r8,r8,2047
  80437c:	2828d7fa 	srli	r20,r5,31
  804380:	2023883a 	mov	r17,r4
  804384:	3039883a 	mov	fp,r6
  804388:	28a6703a 	and	r19,r5,r2
  80438c:	40013426 	beq	r8,zero,804860 <__muldf3+0x520>
  804390:	4081ffe0 	cmpeqi	r2,r8,2047
  804394:	1001461e 	bne	r2,zero,8048b0 <__muldf3+0x570>
  804398:	980a90fa 	slli	r5,r19,3
  80439c:	2026d77a 	srli	r19,r4,29
  8043a0:	202490fa 	slli	r18,r4,3
  8043a4:	423f0044 	addi	r8,r8,-1023
  8043a8:	9966b03a 	or	r19,r19,r5
  8043ac:	9cc02034 	orhi	r19,r19,128
  8043b0:	002b883a 	mov	r21,zero
  8043b4:	002d883a 	mov	r22,zero
  8043b8:	3804d53a 	srli	r2,r7,20
  8043bc:	00c00434 	movhi	r3,16
  8043c0:	18ffffc4 	addi	r3,r3,-1
  8043c4:	1081ffcc 	andi	r2,r2,2047
  8043c8:	382ed7fa 	srli	r23,r7,31
  8043cc:	38e0703a 	and	r16,r7,r3
  8043d0:	10011026 	beq	r2,zero,804814 <__muldf3+0x4d4>
  8043d4:	10c1ffe0 	cmpeqi	r3,r2,2047
  8043d8:	18013c1e 	bne	r3,zero,8048cc <__muldf3+0x58c>
  8043dc:	e008d77a 	srli	r4,fp,29
  8043e0:	802090fa 	slli	r16,r16,3
  8043e4:	e02290fa 	slli	r17,fp,3
  8043e8:	10bf0044 	addi	r2,r2,-1023
  8043ec:	2420b03a 	or	r16,r4,r16
  8043f0:	84002034 	orhi	r16,r16,128
  8043f4:	4091883a 	add	r8,r8,r2
  8043f8:	0009883a 	mov	r4,zero
  8043fc:	a8800428 	cmpgeui	r2,r21,16
  804400:	a5ccf03a 	xor	r6,r20,r23
  804404:	41c00044 	addi	r7,r8,1
  804408:	1000371e 	bne	r2,zero,8044e8 <__muldf3+0x1a8>
  80440c:	a80490ba 	slli	r2,r21,2
  804410:	00c02034 	movhi	r3,128
  804414:	10c7883a 	add	r3,r2,r3
  804418:	18910817 	ldw	r2,17440(r3)
  80441c:	1000683a 	jmp	r2
  804420:	008044e8 	cmpgeui	r2,zero,275
  804424:	00804464 	muli	r2,zero,273
  804428:	00804464 	muli	r2,zero,273
  80442c:	00804460 	cmpeqi	r2,zero,273
  804430:	00804470 	cmpltui	r2,zero,273
  804434:	00804470 	cmpltui	r2,zero,273
  804438:	00804940 	call	80494 <__alt_mem_sdram-0x77fb6c>
  80443c:	00804460 	cmpeqi	r2,zero,273
  804440:	00804470 	cmpltui	r2,zero,273
  804444:	00804940 	call	80494 <__alt_mem_sdram-0x77fb6c>
  804448:	00804470 	cmpltui	r2,zero,273
  80444c:	00804460 	cmpeqi	r2,zero,273
  804450:	008048e8 	cmpgeui	r2,zero,291
  804454:	008048e8 	cmpgeui	r2,zero,291
  804458:	008048e8 	cmpgeui	r2,zero,291
  80445c:	008049cc 	andi	r2,zero,295
  804460:	b80d883a 	mov	r6,r23
  804464:	8027883a 	mov	r19,r16
  804468:	8825883a 	mov	r18,r17
  80446c:	202d883a 	mov	r22,r4
  804470:	b08000a0 	cmpeqi	r2,r22,2
  804474:	1000181e 	bne	r2,zero,8044d8 <__muldf3+0x198>
  804478:	b08000e0 	cmpeqi	r2,r22,3
  80447c:	1001961e 	bne	r2,zero,804ad8 <__muldf3+0x798>
  804480:	b0800060 	cmpeqi	r2,r22,1
  804484:	1000c926 	beq	r2,zero,8047ac <__muldf3+0x46c>
  804488:	0007883a 	mov	r3,zero
  80448c:	0027883a 	mov	r19,zero
  804490:	0025883a 	mov	r18,zero
  804494:	1806953a 	slli	r3,r3,20
  804498:	300c97fa 	slli	r6,r6,31
  80449c:	9005883a 	mov	r2,r18
  8044a0:	1cc6b03a 	or	r3,r3,r19
  8044a4:	1986b03a 	or	r3,r3,r6
  8044a8:	dfc00f17 	ldw	ra,60(sp)
  8044ac:	df000e17 	ldw	fp,56(sp)
  8044b0:	ddc00d17 	ldw	r23,52(sp)
  8044b4:	dd800c17 	ldw	r22,48(sp)
  8044b8:	dd400b17 	ldw	r21,44(sp)
  8044bc:	dd000a17 	ldw	r20,40(sp)
  8044c0:	dcc00917 	ldw	r19,36(sp)
  8044c4:	dc800817 	ldw	r18,32(sp)
  8044c8:	dc400717 	ldw	r17,28(sp)
  8044cc:	dc000617 	ldw	r16,24(sp)
  8044d0:	dec01004 	addi	sp,sp,64
  8044d4:	f800283a 	ret
  8044d8:	00c1ffc4 	movi	r3,2047
  8044dc:	0027883a 	mov	r19,zero
  8044e0:	0025883a 	mov	r18,zero
  8044e4:	003feb06 	br	804494 <__muldf3+0x154>
  8044e8:	9028d43a 	srli	r20,r18,16
  8044ec:	8f3fffcc 	andi	fp,r17,65535
  8044f0:	957fffcc 	andi	r21,r18,65535
  8044f4:	a80b883a 	mov	r5,r21
  8044f8:	e009883a 	mov	r4,fp
  8044fc:	d9800315 	stw	r6,12(sp)
  804500:	da000215 	stw	r8,8(sp)
  804504:	d9c00115 	stw	r7,4(sp)
  804508:	8822d43a 	srli	r17,r17,16
  80450c:	08058280 	call	805828 <__mulsi3>
  804510:	e00b883a 	mov	r5,fp
  804514:	a009883a 	mov	r4,r20
  804518:	102d883a 	mov	r22,r2
  80451c:	08058280 	call	805828 <__mulsi3>
  804520:	880b883a 	mov	r5,r17
  804524:	a009883a 	mov	r4,r20
  804528:	102f883a 	mov	r23,r2
  80452c:	08058280 	call	805828 <__mulsi3>
  804530:	a80b883a 	mov	r5,r21
  804534:	8809883a 	mov	r4,r17
  804538:	d8800015 	stw	r2,0(sp)
  80453c:	08058280 	call	805828 <__mulsi3>
  804540:	b006d43a 	srli	r3,r22,16
  804544:	15e5883a 	add	r18,r2,r23
  804548:	d9c00117 	ldw	r7,4(sp)
  80454c:	1c87883a 	add	r3,r3,r18
  804550:	da000217 	ldw	r8,8(sp)
  804554:	d9800317 	ldw	r6,12(sp)
  804558:	1dc0042e 	bgeu	r3,r23,80456c <__muldf3+0x22c>
  80455c:	d9000017 	ldw	r4,0(sp)
  804560:	00800074 	movhi	r2,1
  804564:	2085883a 	add	r2,r4,r2
  804568:	d8800015 	stw	r2,0(sp)
  80456c:	1804943a 	slli	r2,r3,16
  804570:	85ffffcc 	andi	r23,r16,65535
  804574:	b5bfffcc 	andi	r22,r22,65535
  804578:	1585883a 	add	r2,r2,r22
  80457c:	a80b883a 	mov	r5,r21
  804580:	b809883a 	mov	r4,r23
  804584:	1824d43a 	srli	r18,r3,16
  804588:	d9800515 	stw	r6,20(sp)
  80458c:	da000415 	stw	r8,16(sp)
  804590:	d9c00315 	stw	r7,12(sp)
  804594:	8020d43a 	srli	r16,r16,16
  804598:	d8800115 	stw	r2,4(sp)
  80459c:	08058280 	call	805828 <__mulsi3>
  8045a0:	a009883a 	mov	r4,r20
  8045a4:	b80b883a 	mov	r5,r23
  8045a8:	d8800215 	stw	r2,8(sp)
  8045ac:	08058280 	call	805828 <__mulsi3>
  8045b0:	a009883a 	mov	r4,r20
  8045b4:	800b883a 	mov	r5,r16
  8045b8:	102d883a 	mov	r22,r2
  8045bc:	08058280 	call	805828 <__mulsi3>
  8045c0:	a80b883a 	mov	r5,r21
  8045c4:	8009883a 	mov	r4,r16
  8045c8:	1029883a 	mov	r20,r2
  8045cc:	08058280 	call	805828 <__mulsi3>
  8045d0:	da800217 	ldw	r10,8(sp)
  8045d4:	1585883a 	add	r2,r2,r22
  8045d8:	d9c00317 	ldw	r7,12(sp)
  8045dc:	5006d43a 	srli	r3,r10,16
  8045e0:	da000417 	ldw	r8,16(sp)
  8045e4:	d9800517 	ldw	r6,20(sp)
  8045e8:	1887883a 	add	r3,r3,r2
  8045ec:	1d80022e 	bgeu	r3,r22,8045f8 <__muldf3+0x2b8>
  8045f0:	00800074 	movhi	r2,1
  8045f4:	a0a9883a 	add	r20,r20,r2
  8045f8:	1804d43a 	srli	r2,r3,16
  8045fc:	1806943a 	slli	r3,r3,16
  804600:	982cd43a 	srli	r22,r19,16
  804604:	9d7fffcc 	andi	r21,r19,65535
  804608:	e009883a 	mov	r4,fp
  80460c:	54ffffcc 	andi	r19,r10,65535
  804610:	a80b883a 	mov	r5,r21
  804614:	1ce7883a 	add	r19,r3,r19
  804618:	d9800515 	stw	r6,20(sp)
  80461c:	da000415 	stw	r8,16(sp)
  804620:	d9c00315 	stw	r7,12(sp)
  804624:	1529883a 	add	r20,r2,r20
  804628:	08058280 	call	805828 <__mulsi3>
  80462c:	e00b883a 	mov	r5,fp
  804630:	b009883a 	mov	r4,r22
  804634:	d8800215 	stw	r2,8(sp)
  804638:	08058280 	call	805828 <__mulsi3>
  80463c:	8809883a 	mov	r4,r17
  804640:	b00b883a 	mov	r5,r22
  804644:	1039883a 	mov	fp,r2
  804648:	08058280 	call	805828 <__mulsi3>
  80464c:	8809883a 	mov	r4,r17
  804650:	a80b883a 	mov	r5,r21
  804654:	1023883a 	mov	r17,r2
  804658:	08058280 	call	805828 <__mulsi3>
  80465c:	d8c00217 	ldw	r3,8(sp)
  804660:	1705883a 	add	r2,r2,fp
  804664:	d9c00317 	ldw	r7,12(sp)
  804668:	1808d43a 	srli	r4,r3,16
  80466c:	da000417 	ldw	r8,16(sp)
  804670:	d9800517 	ldw	r6,20(sp)
  804674:	2089883a 	add	r4,r4,r2
  804678:	94e5883a 	add	r18,r18,r19
  80467c:	2700022e 	bgeu	r4,fp,804688 <__muldf3+0x348>
  804680:	00800074 	movhi	r2,1
  804684:	88a3883a 	add	r17,r17,r2
  804688:	2004d43a 	srli	r2,r4,16
  80468c:	2038943a 	slli	fp,r4,16
  804690:	18ffffcc 	andi	r3,r3,65535
  804694:	b809883a 	mov	r4,r23
  804698:	a80b883a 	mov	r5,r21
  80469c:	d9800415 	stw	r6,16(sp)
  8046a0:	da000315 	stw	r8,12(sp)
  8046a4:	d9c00215 	stw	r7,8(sp)
  8046a8:	e0f9883a 	add	fp,fp,r3
  8046ac:	1463883a 	add	r17,r2,r17
  8046b0:	08058280 	call	805828 <__mulsi3>
  8046b4:	b80b883a 	mov	r5,r23
  8046b8:	b009883a 	mov	r4,r22
  8046bc:	102f883a 	mov	r23,r2
  8046c0:	08058280 	call	805828 <__mulsi3>
  8046c4:	b00b883a 	mov	r5,r22
  8046c8:	8009883a 	mov	r4,r16
  8046cc:	102d883a 	mov	r22,r2
  8046d0:	08058280 	call	805828 <__mulsi3>
  8046d4:	a80b883a 	mov	r5,r21
  8046d8:	8009883a 	mov	r4,r16
  8046dc:	1021883a 	mov	r16,r2
  8046e0:	08058280 	call	805828 <__mulsi3>
  8046e4:	b80ad43a 	srli	r5,r23,16
  8046e8:	1585883a 	add	r2,r2,r22
  8046ec:	d9c00217 	ldw	r7,8(sp)
  8046f0:	288b883a 	add	r5,r5,r2
  8046f4:	da000317 	ldw	r8,12(sp)
  8046f8:	d9800417 	ldw	r6,16(sp)
  8046fc:	2d80022e 	bgeu	r5,r22,804708 <__muldf3+0x3c8>
  804700:	00800074 	movhi	r2,1
  804704:	80a1883a 	add	r16,r16,r2
  804708:	2806943a 	slli	r3,r5,16
  80470c:	d8800017 	ldw	r2,0(sp)
  804710:	bdffffcc 	andi	r23,r23,65535
  804714:	1dc7883a 	add	r3,r3,r23
  804718:	90ab883a 	add	r21,r18,r2
  80471c:	acd5803a 	cmpltu	r10,r21,r19
  804720:	1d07883a 	add	r3,r3,r20
  804724:	af2b883a 	add	r21,r21,fp
  804728:	1a97883a 	add	r11,r3,r10
  80472c:	af09803a 	cmpltu	r4,r21,fp
  804730:	2826d43a 	srli	r19,r5,16
  804734:	5c53883a 	add	r9,r11,r17
  804738:	4905883a 	add	r2,r9,r4
  80473c:	1d07803a 	cmpltu	r3,r3,r20
  804740:	5a95803a 	cmpltu	r10,r11,r10
  804744:	1a86b03a 	or	r3,r3,r10
  804748:	1109803a 	cmpltu	r4,r2,r4
  80474c:	4c53803a 	cmpltu	r9,r9,r17
  804750:	1ce7883a 	add	r19,r3,r19
  804754:	4908b03a 	or	r4,r9,r4
  804758:	a824927a 	slli	r18,r21,9
  80475c:	d8c00117 	ldw	r3,4(sp)
  804760:	9927883a 	add	r19,r19,r4
  804764:	9c27883a 	add	r19,r19,r16
  804768:	9826927a 	slli	r19,r19,9
  80476c:	a82ad5fa 	srli	r21,r21,23
  804770:	100ad5fa 	srli	r5,r2,23
  804774:	90e4b03a 	or	r18,r18,r3
  804778:	1004927a 	slli	r2,r2,9
  80477c:	9024c03a 	cmpne	r18,r18,zero
  804780:	9564b03a 	or	r18,r18,r21
  804784:	98c0402c 	andhi	r3,r19,256
  804788:	90a4b03a 	or	r18,r18,r2
  80478c:	9966b03a 	or	r19,r19,r5
  804790:	1800b626 	beq	r3,zero,804a6c <__muldf3+0x72c>
  804794:	9006d07a 	srli	r3,r18,1
  804798:	980497fa 	slli	r2,r19,31
  80479c:	9480004c 	andi	r18,r18,1
  8047a0:	9826d07a 	srli	r19,r19,1
  8047a4:	1c86b03a 	or	r3,r3,r18
  8047a8:	18a4b03a 	or	r18,r3,r2
  8047ac:	3900ffc4 	addi	r4,r7,1023
  8047b0:	0100690e 	bge	zero,r4,804958 <__muldf3+0x618>
  8047b4:	908001cc 	andi	r2,r18,7
  8047b8:	10000726 	beq	r2,zero,8047d8 <__muldf3+0x498>
  8047bc:	908003cc 	andi	r2,r18,15
  8047c0:	10800120 	cmpeqi	r2,r2,4
  8047c4:	1000041e 	bne	r2,zero,8047d8 <__muldf3+0x498>
  8047c8:	90800104 	addi	r2,r18,4
  8047cc:	14a5803a 	cmpltu	r18,r2,r18
  8047d0:	9ca7883a 	add	r19,r19,r18
  8047d4:	1025883a 	mov	r18,r2
  8047d8:	9880402c 	andhi	r2,r19,256
  8047dc:	10000426 	beq	r2,zero,8047f0 <__muldf3+0x4b0>
  8047e0:	00bfc034 	movhi	r2,65280
  8047e4:	10bfffc4 	addi	r2,r2,-1
  8047e8:	98a6703a 	and	r19,r19,r2
  8047ec:	39010004 	addi	r4,r7,1024
  8047f0:	2081ffc8 	cmpgei	r2,r4,2047
  8047f4:	103f381e 	bne	r2,zero,8044d8 <__muldf3+0x198>
  8047f8:	9804977a 	slli	r2,r19,29
  8047fc:	9024d0fa 	srli	r18,r18,3
  804800:	9826927a 	slli	r19,r19,9
  804804:	20c1ffcc 	andi	r3,r4,2047
  804808:	14a4b03a 	or	r18,r2,r18
  80480c:	9826d33a 	srli	r19,r19,12
  804810:	003f2006 	br	804494 <__muldf3+0x154>
  804814:	8722b03a 	or	r17,r16,fp
  804818:	88004526 	beq	r17,zero,804930 <__muldf3+0x5f0>
  80481c:	da000015 	stw	r8,0(sp)
  804820:	80008626 	beq	r16,zero,804a3c <__muldf3+0x6fc>
  804824:	8009883a 	mov	r4,r16
  804828:	08057d40 	call	8057d4 <__clzsi2>
  80482c:	da000017 	ldw	r8,0(sp)
  804830:	117ffd44 	addi	r5,r2,-11
  804834:	01000744 	movi	r4,29
  804838:	147ffe04 	addi	r17,r2,-8
  80483c:	2149c83a 	sub	r4,r4,r5
  804840:	8460983a 	sll	r16,r16,r17
  804844:	e108d83a 	srl	r4,fp,r4
  804848:	e462983a 	sll	r17,fp,r17
  80484c:	2420b03a 	or	r16,r4,r16
  804850:	4091c83a 	sub	r8,r8,r2
  804854:	423f0344 	addi	r8,r8,-1011
  804858:	0009883a 	mov	r4,zero
  80485c:	003ee706 	br	8043fc <__muldf3+0xbc>
  804860:	9924b03a 	or	r18,r19,r4
  804864:	90002d26 	beq	r18,zero,80491c <__muldf3+0x5dc>
  804868:	d9c00015 	stw	r7,0(sp)
  80486c:	98006826 	beq	r19,zero,804a10 <__muldf3+0x6d0>
  804870:	9809883a 	mov	r4,r19
  804874:	08057d40 	call	8057d4 <__clzsi2>
  804878:	d9c00017 	ldw	r7,0(sp)
  80487c:	113ffd44 	addi	r4,r2,-11
  804880:	00c00744 	movi	r3,29
  804884:	14bffe04 	addi	r18,r2,-8
  804888:	1907c83a 	sub	r3,r3,r4
  80488c:	9ca6983a 	sll	r19,r19,r18
  804890:	88c6d83a 	srl	r3,r17,r3
  804894:	8ca4983a 	sll	r18,r17,r18
  804898:	1ce6b03a 	or	r19,r3,r19
  80489c:	023f0344 	movi	r8,-1011
  8048a0:	4091c83a 	sub	r8,r8,r2
  8048a4:	002b883a 	mov	r21,zero
  8048a8:	002d883a 	mov	r22,zero
  8048ac:	003ec206 	br	8043b8 <__muldf3+0x78>
  8048b0:	9924b03a 	or	r18,r19,r4
  8048b4:	9000141e 	bne	r18,zero,804908 <__muldf3+0x5c8>
  8048b8:	0027883a 	mov	r19,zero
  8048bc:	05400204 	movi	r21,8
  8048c0:	0201ffc4 	movi	r8,2047
  8048c4:	05800084 	movi	r22,2
  8048c8:	003ebb06 	br	8043b8 <__muldf3+0x78>
  8048cc:	8722b03a 	or	r17,r16,fp
  8048d0:	4201ffc4 	addi	r8,r8,2047
  8048d4:	8800081e 	bne	r17,zero,8048f8 <__muldf3+0x5b8>
  8048d8:	ad400094 	ori	r21,r21,2
  8048dc:	0021883a 	mov	r16,zero
  8048e0:	01000084 	movi	r4,2
  8048e4:	003ec506 	br	8043fc <__muldf3+0xbc>
  8048e8:	b08000a0 	cmpeqi	r2,r22,2
  8048ec:	a00d883a 	mov	r6,r20
  8048f0:	103ee126 	beq	r2,zero,804478 <__muldf3+0x138>
  8048f4:	003ef806 	br	8044d8 <__muldf3+0x198>
  8048f8:	ad4000d4 	ori	r21,r21,3
  8048fc:	e023883a 	mov	r17,fp
  804900:	010000c4 	movi	r4,3
  804904:	003ebd06 	br	8043fc <__muldf3+0xbc>
  804908:	2025883a 	mov	r18,r4
  80490c:	05400304 	movi	r21,12
  804910:	0201ffc4 	movi	r8,2047
  804914:	058000c4 	movi	r22,3
  804918:	003ea706 	br	8043b8 <__muldf3+0x78>
  80491c:	0027883a 	mov	r19,zero
  804920:	05400104 	movi	r21,4
  804924:	0011883a 	mov	r8,zero
  804928:	05800044 	movi	r22,1
  80492c:	003ea206 	br	8043b8 <__muldf3+0x78>
  804930:	ad400054 	ori	r21,r21,1
  804934:	0021883a 	mov	r16,zero
  804938:	01000044 	movi	r4,1
  80493c:	003eaf06 	br	8043fc <__muldf3+0xbc>
  804940:	04c00434 	movhi	r19,16
  804944:	000d883a 	mov	r6,zero
  804948:	9cffffc4 	addi	r19,r19,-1
  80494c:	04bfffc4 	movi	r18,-1
  804950:	00c1ffc4 	movi	r3,2047
  804954:	003ecf06 	br	804494 <__muldf3+0x154>
  804958:	00800044 	movi	r2,1
  80495c:	1105c83a 	sub	r2,r2,r4
  804960:	10c00e48 	cmpgei	r3,r2,57
  804964:	183ec81e 	bne	r3,zero,804488 <__muldf3+0x148>
  804968:	10c00808 	cmpgei	r3,r2,32
  80496c:	1800411e 	bne	r3,zero,804a74 <__muldf3+0x734>
  804970:	39c10784 	addi	r7,r7,1054
  804974:	99c6983a 	sll	r3,r19,r7
  804978:	9088d83a 	srl	r4,r18,r2
  80497c:	91ce983a 	sll	r7,r18,r7
  804980:	98a6d83a 	srl	r19,r19,r2
  804984:	1904b03a 	or	r2,r3,r4
  804988:	3824c03a 	cmpne	r18,r7,zero
  80498c:	1484b03a 	or	r2,r2,r18
  804990:	10c001cc 	andi	r3,r2,7
  804994:	18000726 	beq	r3,zero,8049b4 <__muldf3+0x674>
  804998:	10c003cc 	andi	r3,r2,15
  80499c:	18c00120 	cmpeqi	r3,r3,4
  8049a0:	1800041e 	bne	r3,zero,8049b4 <__muldf3+0x674>
  8049a4:	10c00104 	addi	r3,r2,4
  8049a8:	1885803a 	cmpltu	r2,r3,r2
  8049ac:	98a7883a 	add	r19,r19,r2
  8049b0:	1805883a 	mov	r2,r3
  8049b4:	98c0202c 	andhi	r3,r19,128
  8049b8:	18004326 	beq	r3,zero,804ac8 <__muldf3+0x788>
  8049bc:	00c00044 	movi	r3,1
  8049c0:	0027883a 	mov	r19,zero
  8049c4:	0025883a 	mov	r18,zero
  8049c8:	003eb206 	br	804494 <__muldf3+0x154>
  8049cc:	9880022c 	andhi	r2,r19,8
  8049d0:	10000926 	beq	r2,zero,8049f8 <__muldf3+0x6b8>
  8049d4:	8080022c 	andhi	r2,r16,8
  8049d8:	1000071e 	bne	r2,zero,8049f8 <__muldf3+0x6b8>
  8049dc:	00800434 	movhi	r2,16
  8049e0:	84c00234 	orhi	r19,r16,8
  8049e4:	10bfffc4 	addi	r2,r2,-1
  8049e8:	98a6703a 	and	r19,r19,r2
  8049ec:	b80d883a 	mov	r6,r23
  8049f0:	8825883a 	mov	r18,r17
  8049f4:	003fd606 	br	804950 <__muldf3+0x610>
  8049f8:	00800434 	movhi	r2,16
  8049fc:	9cc00234 	orhi	r19,r19,8
  804a00:	10bfffc4 	addi	r2,r2,-1
  804a04:	98a6703a 	and	r19,r19,r2
  804a08:	a00d883a 	mov	r6,r20
  804a0c:	003fd006 	br	804950 <__muldf3+0x610>
  804a10:	08057d40 	call	8057d4 <__clzsi2>
  804a14:	11000544 	addi	r4,r2,21
  804a18:	21400748 	cmpgei	r5,r4,29
  804a1c:	1007883a 	mov	r3,r2
  804a20:	d9c00017 	ldw	r7,0(sp)
  804a24:	10800804 	addi	r2,r2,32
  804a28:	283f9526 	beq	r5,zero,804880 <__muldf3+0x540>
  804a2c:	18fffe04 	addi	r3,r3,-8
  804a30:	88e6983a 	sll	r19,r17,r3
  804a34:	0025883a 	mov	r18,zero
  804a38:	003f9806 	br	80489c <__muldf3+0x55c>
  804a3c:	e009883a 	mov	r4,fp
  804a40:	08057d40 	call	8057d4 <__clzsi2>
  804a44:	11400544 	addi	r5,r2,21
  804a48:	29000748 	cmpgei	r4,r5,29
  804a4c:	1007883a 	mov	r3,r2
  804a50:	da000017 	ldw	r8,0(sp)
  804a54:	10800804 	addi	r2,r2,32
  804a58:	203f7626 	beq	r4,zero,804834 <__muldf3+0x4f4>
  804a5c:	1c3ffe04 	addi	r16,r3,-8
  804a60:	e420983a 	sll	r16,fp,r16
  804a64:	0023883a 	mov	r17,zero
  804a68:	003f7906 	br	804850 <__muldf3+0x510>
  804a6c:	400f883a 	mov	r7,r8
  804a70:	003f4e06 	br	8047ac <__muldf3+0x46c>
  804a74:	00fff844 	movi	r3,-31
  804a78:	1907c83a 	sub	r3,r3,r4
  804a7c:	10800820 	cmpeqi	r2,r2,32
  804a80:	98c6d83a 	srl	r3,r19,r3
  804a84:	1000031e 	bne	r2,zero,804a94 <__muldf3+0x754>
  804a88:	39c10f84 	addi	r7,r7,1086
  804a8c:	99e6983a 	sll	r19,r19,r7
  804a90:	94e4b03a 	or	r18,r18,r19
  804a94:	9024c03a 	cmpne	r18,r18,zero
  804a98:	90c4b03a 	or	r2,r18,r3
  804a9c:	148001cc 	andi	r18,r2,7
  804aa0:	9000051e 	bne	r18,zero,804ab8 <__muldf3+0x778>
  804aa4:	0027883a 	mov	r19,zero
  804aa8:	1004d0fa 	srli	r2,r2,3
  804aac:	0007883a 	mov	r3,zero
  804ab0:	14a4b03a 	or	r18,r2,r18
  804ab4:	003e7706 	br	804494 <__muldf3+0x154>
  804ab8:	10c003cc 	andi	r3,r2,15
  804abc:	18c00118 	cmpnei	r3,r3,4
  804ac0:	0027883a 	mov	r19,zero
  804ac4:	183fb71e 	bne	r3,zero,8049a4 <__muldf3+0x664>
  804ac8:	9806927a 	slli	r3,r19,9
  804acc:	9824977a 	slli	r18,r19,29
  804ad0:	1826d33a 	srli	r19,r3,12
  804ad4:	003ff406 	br	804aa8 <__muldf3+0x768>
  804ad8:	00800434 	movhi	r2,16
  804adc:	9cc00234 	orhi	r19,r19,8
  804ae0:	10bfffc4 	addi	r2,r2,-1
  804ae4:	98a6703a 	and	r19,r19,r2
  804ae8:	003f9906 	br	804950 <__muldf3+0x610>

00804aec <__subdf3>:
  804aec:	00800434 	movhi	r2,16
  804af0:	3810d53a 	srli	r8,r7,20
  804af4:	10bfffc4 	addi	r2,r2,-1
  804af8:	2806d53a 	srli	r3,r5,20
  804afc:	2892703a 	and	r9,r5,r2
  804b00:	3884703a 	and	r2,r7,r2
  804b04:	280ad7fa 	srli	r5,r5,31
  804b08:	481290fa 	slli	r9,r9,3
  804b0c:	2018d77a 	srli	r12,r4,29
  804b10:	100490fa 	slli	r2,r2,3
  804b14:	3016d77a 	srli	r11,r6,29
  804b18:	defffb04 	addi	sp,sp,-20
  804b1c:	4201ffcc 	andi	r8,r8,2047
  804b20:	dc800215 	stw	r18,8(sp)
  804b24:	dc400115 	stw	r17,4(sp)
  804b28:	1c81ffcc 	andi	r18,r3,2047
  804b2c:	dfc00415 	stw	ra,16(sp)
  804b30:	dcc00315 	stw	r19,12(sp)
  804b34:	dc000015 	stw	r16,0(sp)
  804b38:	4281ffd8 	cmpnei	r10,r8,2047
  804b3c:	2823883a 	mov	r17,r5
  804b40:	201c90fa 	slli	r14,r4,3
  804b44:	380ed7fa 	srli	r7,r7,31
  804b48:	301a90fa 	slli	r13,r6,3
  804b4c:	29403fcc 	andi	r5,r5,255
  804b50:	6252b03a 	or	r9,r12,r9
  804b54:	589eb03a 	or	r15,r11,r2
  804b58:	9207c83a 	sub	r3,r18,r8
  804b5c:	50006826 	beq	r10,zero,804d00 <__subdf3+0x214>
  804b60:	3ac0005c 	xori	r11,r7,1
  804b64:	2ac07326 	beq	r5,r11,804d34 <__subdf3+0x248>
  804b68:	00c0590e 	bge	zero,r3,804cd0 <__subdf3+0x1e4>
  804b6c:	4000691e 	bne	r8,zero,804d14 <__subdf3+0x228>
  804b70:	7b44b03a 	or	r2,r15,r13
  804b74:	1000fb26 	beq	r2,zero,804f64 <__subdf3+0x478>
  804b78:	18bfffc4 	addi	r2,r3,-1
  804b7c:	10019126 	beq	r2,zero,8051c4 <__subdf3+0x6d8>
  804b80:	18c1ffd8 	cmpnei	r3,r3,2047
  804b84:	1800c326 	beq	r3,zero,804e94 <__subdf3+0x3a8>
  804b88:	1007883a 	mov	r3,r2
  804b8c:	18800e48 	cmpgei	r2,r3,57
  804b90:	1000651e 	bne	r2,zero,804d28 <__subdf3+0x23c>
  804b94:	18800808 	cmpgei	r2,r3,32
  804b98:	1001331e 	bne	r2,zero,805068 <__subdf3+0x57c>
  804b9c:	00800804 	movi	r2,32
  804ba0:	10c5c83a 	sub	r2,r2,r3
  804ba4:	78a0983a 	sll	r16,r15,r2
  804ba8:	68c8d83a 	srl	r4,r13,r3
  804bac:	689a983a 	sll	r13,r13,r2
  804bb0:	78c4d83a 	srl	r2,r15,r3
  804bb4:	8120b03a 	or	r16,r16,r4
  804bb8:	681ac03a 	cmpne	r13,r13,zero
  804bbc:	8360b03a 	or	r16,r16,r13
  804bc0:	4893c83a 	sub	r9,r9,r2
  804bc4:	7421c83a 	sub	r16,r14,r16
  804bc8:	7409803a 	cmpltu	r4,r14,r16
  804bcc:	4909c83a 	sub	r4,r9,r4
  804bd0:	2080202c 	andhi	r2,r4,128
  804bd4:	10009326 	beq	r2,zero,804e24 <__subdf3+0x338>
  804bd8:	04c02034 	movhi	r19,128
  804bdc:	9cffffc4 	addi	r19,r19,-1
  804be0:	24e6703a 	and	r19,r4,r19
  804be4:	9800b926 	beq	r19,zero,804ecc <__subdf3+0x3e0>
  804be8:	9809883a 	mov	r4,r19
  804bec:	08057d40 	call	8057d4 <__clzsi2>
  804bf0:	10fffe04 	addi	r3,r2,-8
  804bf4:	01000804 	movi	r4,32
  804bf8:	20c9c83a 	sub	r4,r4,r3
  804bfc:	8108d83a 	srl	r4,r16,r4
  804c00:	98e6983a 	sll	r19,r19,r3
  804c04:	80e0983a 	sll	r16,r16,r3
  804c08:	24c8b03a 	or	r4,r4,r19
  804c0c:	1c80b816 	blt	r3,r18,804ef0 <__subdf3+0x404>
  804c10:	1c87c83a 	sub	r3,r3,r18
  804c14:	19400044 	addi	r5,r3,1
  804c18:	28800808 	cmpgei	r2,r5,32
  804c1c:	1000751e 	bne	r2,zero,804df4 <__subdf3+0x308>
  804c20:	00800804 	movi	r2,32
  804c24:	1145c83a 	sub	r2,r2,r5
  804c28:	8146d83a 	srl	r3,r16,r5
  804c2c:	80a0983a 	sll	r16,r16,r2
  804c30:	2084983a 	sll	r2,r4,r2
  804c34:	2148d83a 	srl	r4,r4,r5
  804c38:	8020c03a 	cmpne	r16,r16,zero
  804c3c:	10c4b03a 	or	r2,r2,r3
  804c40:	1420b03a 	or	r16,r2,r16
  804c44:	0025883a 	mov	r18,zero
  804c48:	808001cc 	andi	r2,r16,7
  804c4c:	10000726 	beq	r2,zero,804c6c <__subdf3+0x180>
  804c50:	808003cc 	andi	r2,r16,15
  804c54:	10800120 	cmpeqi	r2,r2,4
  804c58:	1000041e 	bne	r2,zero,804c6c <__subdf3+0x180>
  804c5c:	80800104 	addi	r2,r16,4
  804c60:	1421803a 	cmpltu	r16,r2,r16
  804c64:	2409883a 	add	r4,r4,r16
  804c68:	1021883a 	mov	r16,r2
  804c6c:	2080202c 	andhi	r2,r4,128
  804c70:	10006e26 	beq	r2,zero,804e2c <__subdf3+0x340>
  804c74:	90c00044 	addi	r3,r18,1
  804c78:	1881ffe0 	cmpeqi	r2,r3,2047
  804c7c:	18c1ffcc 	andi	r3,r3,2047
  804c80:	1000801e 	bne	r2,zero,804e84 <__subdf3+0x398>
  804c84:	00bfe034 	movhi	r2,65408
  804c88:	10bfffc4 	addi	r2,r2,-1
  804c8c:	2088703a 	and	r4,r4,r2
  804c90:	2004977a 	slli	r2,r4,29
  804c94:	2008927a 	slli	r4,r4,9
  804c98:	8020d0fa 	srli	r16,r16,3
  804c9c:	2008d33a 	srli	r4,r4,12
  804ca0:	1404b03a 	or	r2,r2,r16
  804ca4:	1806953a 	slli	r3,r3,20
  804ca8:	882297fa 	slli	r17,r17,31
  804cac:	1906b03a 	or	r3,r3,r4
  804cb0:	1c46b03a 	or	r3,r3,r17
  804cb4:	dfc00417 	ldw	ra,16(sp)
  804cb8:	dcc00317 	ldw	r19,12(sp)
  804cbc:	dc800217 	ldw	r18,8(sp)
  804cc0:	dc400117 	ldw	r17,4(sp)
  804cc4:	dc000017 	ldw	r16,0(sp)
  804cc8:	dec00504 	addi	sp,sp,20
  804ccc:	f800283a 	ret
  804cd0:	18002c26 	beq	r3,zero,804d84 <__subdf3+0x298>
  804cd4:	4487c83a 	sub	r3,r8,r18
  804cd8:	5823883a 	mov	r17,r11
  804cdc:	9000bb1e 	bne	r18,zero,804fcc <__subdf3+0x4e0>
  804ce0:	4b84b03a 	or	r2,r9,r14
  804ce4:	10011726 	beq	r2,zero,805144 <__subdf3+0x658>
  804ce8:	18bfffc4 	addi	r2,r3,-1
  804cec:	10016326 	beq	r2,zero,80527c <__subdf3+0x790>
  804cf0:	18c1ffd8 	cmpnei	r3,r3,2047
  804cf4:	18012c26 	beq	r3,zero,8051a8 <__subdf3+0x6bc>
  804cf8:	1007883a 	mov	r3,r2
  804cfc:	0000b506 	br	804fd4 <__subdf3+0x4e8>
  804d00:	7b44b03a 	or	r2,r15,r13
  804d04:	103f9626 	beq	r2,zero,804b60 <__subdf3+0x74>
  804d08:	3ac03fcc 	andi	r11,r7,255
  804d0c:	29c07d26 	beq	r5,r7,804f04 <__subdf3+0x418>
  804d10:	00ffef0e 	bge	zero,r3,804cd0 <__subdf3+0x1e4>
  804d14:	9081ffd8 	cmpnei	r2,r18,2047
  804d18:	10005e26 	beq	r2,zero,804e94 <__subdf3+0x3a8>
  804d1c:	18800e48 	cmpgei	r2,r3,57
  804d20:	7bc02034 	orhi	r15,r15,128
  804d24:	103f9b26 	beq	r2,zero,804b94 <__subdf3+0xa8>
  804d28:	7b60b03a 	or	r16,r15,r13
  804d2c:	8020c03a 	cmpne	r16,r16,zero
  804d30:	003fa406 	br	804bc4 <__subdf3+0xd8>
  804d34:	00c0730e 	bge	zero,r3,804f04 <__subdf3+0x418>
  804d38:	40002626 	beq	r8,zero,804dd4 <__subdf3+0x2e8>
  804d3c:	9081ffd8 	cmpnei	r2,r18,2047
  804d40:	10005426 	beq	r2,zero,804e94 <__subdf3+0x3a8>
  804d44:	7bc02034 	orhi	r15,r15,128
  804d48:	18800e48 	cmpgei	r2,r3,57
  804d4c:	1000431e 	bne	r2,zero,804e5c <__subdf3+0x370>
  804d50:	18800808 	cmpgei	r2,r3,32
  804d54:	1000de26 	beq	r2,zero,8050d0 <__subdf3+0x5e4>
  804d58:	1c3ff804 	addi	r16,r3,-32
  804d5c:	18800820 	cmpeqi	r2,r3,32
  804d60:	7c0ad83a 	srl	r5,r15,r16
  804d64:	1000041e 	bne	r2,zero,804d78 <__subdf3+0x28c>
  804d68:	00801004 	movi	r2,64
  804d6c:	10c5c83a 	sub	r2,r2,r3
  804d70:	7884983a 	sll	r2,r15,r2
  804d74:	689ab03a 	or	r13,r13,r2
  804d78:	6820c03a 	cmpne	r16,r13,zero
  804d7c:	8160b03a 	or	r16,r16,r5
  804d80:	00003806 	br	804e64 <__subdf3+0x378>
  804d84:	90800044 	addi	r2,r18,1
  804d88:	1081ff8c 	andi	r2,r2,2046
  804d8c:	1000a01e 	bne	r2,zero,805010 <__subdf3+0x524>
  804d90:	4b8ab03a 	or	r5,r9,r14
  804d94:	7b44b03a 	or	r2,r15,r13
  804d98:	9000f11e 	bne	r18,zero,805160 <__subdf3+0x674>
  804d9c:	28012e26 	beq	r5,zero,805258 <__subdf3+0x76c>
  804da0:	10010e26 	beq	r2,zero,8051dc <__subdf3+0x6f0>
  804da4:	7361c83a 	sub	r16,r14,r13
  804da8:	7405803a 	cmpltu	r2,r14,r16
  804dac:	4bc9c83a 	sub	r4,r9,r15
  804db0:	2089c83a 	sub	r4,r4,r2
  804db4:	2080202c 	andhi	r2,r4,128
  804db8:	10016d26 	beq	r2,zero,805370 <__subdf3+0x884>
  804dbc:	6ba1c83a 	sub	r16,r13,r14
  804dc0:	7a49c83a 	sub	r4,r15,r9
  804dc4:	6c1b803a 	cmpltu	r13,r13,r16
  804dc8:	2349c83a 	sub	r4,r4,r13
  804dcc:	5823883a 	mov	r17,r11
  804dd0:	003f9d06 	br	804c48 <__subdf3+0x15c>
  804dd4:	7b44b03a 	or	r2,r15,r13
  804dd8:	10006226 	beq	r2,zero,804f64 <__subdf3+0x478>
  804ddc:	18bfffc4 	addi	r2,r3,-1
  804de0:	1000e926 	beq	r2,zero,805188 <__subdf3+0x69c>
  804de4:	18c1ffd8 	cmpnei	r3,r3,2047
  804de8:	18012a26 	beq	r3,zero,805294 <__subdf3+0x7a8>
  804dec:	1007883a 	mov	r3,r2
  804df0:	003fd506 	br	804d48 <__subdf3+0x25c>
  804df4:	18fff844 	addi	r3,r3,-31
  804df8:	28800820 	cmpeqi	r2,r5,32
  804dfc:	20c6d83a 	srl	r3,r4,r3
  804e00:	1000041e 	bne	r2,zero,804e14 <__subdf3+0x328>
  804e04:	00801004 	movi	r2,64
  804e08:	114bc83a 	sub	r5,r2,r5
  804e0c:	2148983a 	sll	r4,r4,r5
  804e10:	8120b03a 	or	r16,r16,r4
  804e14:	8020c03a 	cmpne	r16,r16,zero
  804e18:	80e0b03a 	or	r16,r16,r3
  804e1c:	0009883a 	mov	r4,zero
  804e20:	0025883a 	mov	r18,zero
  804e24:	808001cc 	andi	r2,r16,7
  804e28:	103f891e 	bne	r2,zero,804c50 <__subdf3+0x164>
  804e2c:	8020d0fa 	srli	r16,r16,3
  804e30:	2004977a 	slli	r2,r4,29
  804e34:	2012d0fa 	srli	r9,r4,3
  804e38:	9007883a 	mov	r3,r18
  804e3c:	8084b03a 	or	r2,r16,r2
  804e40:	1901ffe0 	cmpeqi	r4,r3,2047
  804e44:	2000191e 	bne	r4,zero,804eac <__subdf3+0x3c0>
  804e48:	01000434 	movhi	r4,16
  804e4c:	213fffc4 	addi	r4,r4,-1
  804e50:	4908703a 	and	r4,r9,r4
  804e54:	18c1ffcc 	andi	r3,r3,2047
  804e58:	003f9206 	br	804ca4 <__subdf3+0x1b8>
  804e5c:	7b60b03a 	or	r16,r15,r13
  804e60:	8020c03a 	cmpne	r16,r16,zero
  804e64:	83a1883a 	add	r16,r16,r14
  804e68:	8389803a 	cmpltu	r4,r16,r14
  804e6c:	2249883a 	add	r4,r4,r9
  804e70:	2080202c 	andhi	r2,r4,128
  804e74:	103feb26 	beq	r2,zero,804e24 <__subdf3+0x338>
  804e78:	94800044 	addi	r18,r18,1
  804e7c:	9081ffe0 	cmpeqi	r2,r18,2047
  804e80:	10006f26 	beq	r2,zero,805040 <__subdf3+0x554>
  804e84:	00c1ffc4 	movi	r3,2047
  804e88:	0009883a 	mov	r4,zero
  804e8c:	0005883a 	mov	r2,zero
  804e90:	003f8406 	br	804ca4 <__subdf3+0x1b8>
  804e94:	4806977a 	slli	r3,r9,29
  804e98:	00880034 	movhi	r2,8192
  804e9c:	10bfffc4 	addi	r2,r2,-1
  804ea0:	4812d0fa 	srli	r9,r9,3
  804ea4:	2088703a 	and	r4,r4,r2
  804ea8:	20c4b03a 	or	r2,r4,r3
  804eac:	4886b03a 	or	r3,r9,r2
  804eb0:	18013726 	beq	r3,zero,805390 <__subdf3+0x8a4>
  804eb4:	00c00434 	movhi	r3,16
  804eb8:	18ffffc4 	addi	r3,r3,-1
  804ebc:	49000234 	orhi	r4,r9,8
  804ec0:	20c8703a 	and	r4,r4,r3
  804ec4:	00c1ffc4 	movi	r3,2047
  804ec8:	003f7606 	br	804ca4 <__subdf3+0x1b8>
  804ecc:	8009883a 	mov	r4,r16
  804ed0:	08057d40 	call	8057d4 <__clzsi2>
  804ed4:	10c00604 	addi	r3,r2,24
  804ed8:	19000808 	cmpgei	r4,r3,32
  804edc:	203f4526 	beq	r4,zero,804bf4 <__subdf3+0x108>
  804ee0:	113ffe04 	addi	r4,r2,-8
  804ee4:	8108983a 	sll	r4,r16,r4
  804ee8:	0021883a 	mov	r16,zero
  804eec:	1cbf480e 	bge	r3,r18,804c10 <__subdf3+0x124>
  804ef0:	00bfe034 	movhi	r2,65408
  804ef4:	10bfffc4 	addi	r2,r2,-1
  804ef8:	90e5c83a 	sub	r18,r18,r3
  804efc:	2088703a 	and	r4,r4,r2
  804f00:	003f5106 	br	804c48 <__subdf3+0x15c>
  804f04:	18001e26 	beq	r3,zero,804f80 <__subdf3+0x494>
  804f08:	4487c83a 	sub	r3,r8,r18
  804f0c:	90006826 	beq	r18,zero,8050b0 <__subdf3+0x5c4>
  804f10:	5000a526 	beq	r10,zero,8051a8 <__subdf3+0x6bc>
  804f14:	4a402034 	orhi	r9,r9,128
  804f18:	18800e48 	cmpgei	r2,r3,57
  804f1c:	1000b61e 	bne	r2,zero,8051f8 <__subdf3+0x70c>
  804f20:	18800808 	cmpgei	r2,r3,32
  804f24:	1001021e 	bne	r2,zero,805330 <__subdf3+0x844>
  804f28:	00800804 	movi	r2,32
  804f2c:	10c5c83a 	sub	r2,r2,r3
  804f30:	48a0983a 	sll	r16,r9,r2
  804f34:	70c8d83a 	srl	r4,r14,r3
  804f38:	7084983a 	sll	r2,r14,r2
  804f3c:	48d2d83a 	srl	r9,r9,r3
  804f40:	8120b03a 	or	r16,r16,r4
  804f44:	1004c03a 	cmpne	r2,r2,zero
  804f48:	80a0b03a 	or	r16,r16,r2
  804f4c:	7a5f883a 	add	r15,r15,r9
  804f50:	8361883a 	add	r16,r16,r13
  804f54:	8349803a 	cmpltu	r4,r16,r13
  804f58:	23c9883a 	add	r4,r4,r15
  804f5c:	4025883a 	mov	r18,r8
  804f60:	003fc306 	br	804e70 <__subdf3+0x384>
  804f64:	480a977a 	slli	r5,r9,29
  804f68:	00880034 	movhi	r2,8192
  804f6c:	10bfffc4 	addi	r2,r2,-1
  804f70:	2088703a 	and	r4,r4,r2
  804f74:	4812d0fa 	srli	r9,r9,3
  804f78:	2144b03a 	or	r2,r4,r5
  804f7c:	003fb006 	br	804e40 <__subdf3+0x354>
  804f80:	90800044 	addi	r2,r18,1
  804f84:	1141ff8c 	andi	r5,r2,2046
  804f88:	28005c1e 	bne	r5,zero,8050fc <__subdf3+0x610>
  804f8c:	4b84b03a 	or	r2,r9,r14
  804f90:	9000a71e 	bne	r18,zero,805230 <__subdf3+0x744>
  804f94:	1000df26 	beq	r2,zero,805314 <__subdf3+0x828>
  804f98:	7b44b03a 	or	r2,r15,r13
  804f9c:	10008f26 	beq	r2,zero,8051dc <__subdf3+0x6f0>
  804fa0:	7361883a 	add	r16,r14,r13
  804fa4:	4bc9883a 	add	r4,r9,r15
  804fa8:	839d803a 	cmpltu	r14,r16,r14
  804fac:	2389883a 	add	r4,r4,r14
  804fb0:	2080202c 	andhi	r2,r4,128
  804fb4:	103f9b26 	beq	r2,zero,804e24 <__subdf3+0x338>
  804fb8:	00bfe034 	movhi	r2,65408
  804fbc:	10bfffc4 	addi	r2,r2,-1
  804fc0:	2088703a 	and	r4,r4,r2
  804fc4:	04800044 	movi	r18,1
  804fc8:	003f9606 	br	804e24 <__subdf3+0x338>
  804fcc:	50007626 	beq	r10,zero,8051a8 <__subdf3+0x6bc>
  804fd0:	4a402034 	orhi	r9,r9,128
  804fd4:	18800e48 	cmpgei	r2,r3,57
  804fd8:	10002e1e 	bne	r2,zero,805094 <__subdf3+0x5a8>
  804fdc:	18800808 	cmpgei	r2,r3,32
  804fe0:	1000881e 	bne	r2,zero,805204 <__subdf3+0x718>
  804fe4:	00800804 	movi	r2,32
  804fe8:	10c5c83a 	sub	r2,r2,r3
  804fec:	48a0983a 	sll	r16,r9,r2
  804ff0:	70c8d83a 	srl	r4,r14,r3
  804ff4:	709c983a 	sll	r14,r14,r2
  804ff8:	48d2d83a 	srl	r9,r9,r3
  804ffc:	8120b03a 	or	r16,r16,r4
  805000:	701cc03a 	cmpne	r14,r14,zero
  805004:	83a0b03a 	or	r16,r16,r14
  805008:	7a5fc83a 	sub	r15,r15,r9
  80500c:	00002306 	br	80509c <__subdf3+0x5b0>
  805010:	7361c83a 	sub	r16,r14,r13
  805014:	4be7c83a 	sub	r19,r9,r15
  805018:	7409803a 	cmpltu	r4,r14,r16
  80501c:	9927c83a 	sub	r19,r19,r4
  805020:	9880202c 	andhi	r2,r19,128
  805024:	1000411e 	bne	r2,zero,80512c <__subdf3+0x640>
  805028:	84c4b03a 	or	r2,r16,r19
  80502c:	103eed1e 	bne	r2,zero,804be4 <__subdf3+0xf8>
  805030:	0013883a 	mov	r9,zero
  805034:	0023883a 	mov	r17,zero
  805038:	003f8306 	br	804e48 <__subdf3+0x35c>
  80503c:	04800084 	movi	r18,2
  805040:	00bfe034 	movhi	r2,65408
  805044:	10bfffc4 	addi	r2,r2,-1
  805048:	8006d07a 	srli	r3,r16,1
  80504c:	2088703a 	and	r4,r4,r2
  805050:	200497fa 	slli	r2,r4,31
  805054:	8400004c 	andi	r16,r16,1
  805058:	1c20b03a 	or	r16,r3,r16
  80505c:	2008d07a 	srli	r4,r4,1
  805060:	1420b03a 	or	r16,r2,r16
  805064:	003ef806 	br	804c48 <__subdf3+0x15c>
  805068:	1c3ff804 	addi	r16,r3,-32
  80506c:	18800820 	cmpeqi	r2,r3,32
  805070:	7c0ad83a 	srl	r5,r15,r16
  805074:	1000041e 	bne	r2,zero,805088 <__subdf3+0x59c>
  805078:	00801004 	movi	r2,64
  80507c:	10c5c83a 	sub	r2,r2,r3
  805080:	7884983a 	sll	r2,r15,r2
  805084:	689ab03a 	or	r13,r13,r2
  805088:	6820c03a 	cmpne	r16,r13,zero
  80508c:	8160b03a 	or	r16,r16,r5
  805090:	003ecc06 	br	804bc4 <__subdf3+0xd8>
  805094:	4b92b03a 	or	r9,r9,r14
  805098:	4820c03a 	cmpne	r16,r9,zero
  80509c:	6c21c83a 	sub	r16,r13,r16
  8050a0:	6c09803a 	cmpltu	r4,r13,r16
  8050a4:	7909c83a 	sub	r4,r15,r4
  8050a8:	4025883a 	mov	r18,r8
  8050ac:	003ec806 	br	804bd0 <__subdf3+0xe4>
  8050b0:	4b84b03a 	or	r2,r9,r14
  8050b4:	10007e26 	beq	r2,zero,8052b0 <__subdf3+0x7c4>
  8050b8:	18bfffc4 	addi	r2,r3,-1
  8050bc:	1000a726 	beq	r2,zero,80535c <__subdf3+0x870>
  8050c0:	18c1ffd8 	cmpnei	r3,r3,2047
  8050c4:	18003826 	beq	r3,zero,8051a8 <__subdf3+0x6bc>
  8050c8:	1007883a 	mov	r3,r2
  8050cc:	003f9206 	br	804f18 <__subdf3+0x42c>
  8050d0:	00800804 	movi	r2,32
  8050d4:	10c5c83a 	sub	r2,r2,r3
  8050d8:	78a0983a 	sll	r16,r15,r2
  8050dc:	68c8d83a 	srl	r4,r13,r3
  8050e0:	689a983a 	sll	r13,r13,r2
  8050e4:	78c4d83a 	srl	r2,r15,r3
  8050e8:	8120b03a 	or	r16,r16,r4
  8050ec:	681ac03a 	cmpne	r13,r13,zero
  8050f0:	8360b03a 	or	r16,r16,r13
  8050f4:	4893883a 	add	r9,r9,r2
  8050f8:	003f5a06 	br	804e64 <__subdf3+0x378>
  8050fc:	10c1ffe0 	cmpeqi	r3,r2,2047
  805100:	183f601e 	bne	r3,zero,804e84 <__subdf3+0x398>
  805104:	735b883a 	add	r13,r14,r13
  805108:	6b9d803a 	cmpltu	r14,r13,r14
  80510c:	4bc9883a 	add	r4,r9,r15
  805110:	2389883a 	add	r4,r4,r14
  805114:	202097fa 	slli	r16,r4,31
  805118:	681ad07a 	srli	r13,r13,1
  80511c:	2008d07a 	srli	r4,r4,1
  805120:	1025883a 	mov	r18,r2
  805124:	8360b03a 	or	r16,r16,r13
  805128:	003f3e06 	br	804e24 <__subdf3+0x338>
  80512c:	6ba1c83a 	sub	r16,r13,r14
  805130:	7a49c83a 	sub	r4,r15,r9
  805134:	6c1b803a 	cmpltu	r13,r13,r16
  805138:	2367c83a 	sub	r19,r4,r13
  80513c:	5823883a 	mov	r17,r11
  805140:	003ea806 	br	804be4 <__subdf3+0xf8>
  805144:	7808977a 	slli	r4,r15,29
  805148:	00880034 	movhi	r2,8192
  80514c:	10bfffc4 	addi	r2,r2,-1
  805150:	308c703a 	and	r6,r6,r2
  805154:	7812d0fa 	srli	r9,r15,3
  805158:	3104b03a 	or	r2,r6,r4
  80515c:	003f3806 	br	804e40 <__subdf3+0x354>
  805160:	28005a1e 	bne	r5,zero,8052cc <__subdf3+0x7e0>
  805164:	10008526 	beq	r2,zero,80537c <__subdf3+0x890>
  805168:	7806977a 	slli	r3,r15,29
  80516c:	00880034 	movhi	r2,8192
  805170:	10bfffc4 	addi	r2,r2,-1
  805174:	3084703a 	and	r2,r6,r2
  805178:	7812d0fa 	srli	r9,r15,3
  80517c:	10c4b03a 	or	r2,r2,r3
  805180:	5823883a 	mov	r17,r11
  805184:	003f4906 	br	804eac <__subdf3+0x3c0>
  805188:	7361883a 	add	r16,r14,r13
  80518c:	4bc9883a 	add	r4,r9,r15
  805190:	839d803a 	cmpltu	r14,r16,r14
  805194:	2389883a 	add	r4,r4,r14
  805198:	2080202c 	andhi	r2,r4,128
  80519c:	103fa71e 	bne	r2,zero,80503c <__subdf3+0x550>
  8051a0:	04800044 	movi	r18,1
  8051a4:	003f1f06 	br	804e24 <__subdf3+0x338>
  8051a8:	7806977a 	slli	r3,r15,29
  8051ac:	00880034 	movhi	r2,8192
  8051b0:	10bfffc4 	addi	r2,r2,-1
  8051b4:	3084703a 	and	r2,r6,r2
  8051b8:	7812d0fa 	srli	r9,r15,3
  8051bc:	10c4b03a 	or	r2,r2,r3
  8051c0:	003f3a06 	br	804eac <__subdf3+0x3c0>
  8051c4:	7361c83a 	sub	r16,r14,r13
  8051c8:	4bc9c83a 	sub	r4,r9,r15
  8051cc:	741d803a 	cmpltu	r14,r14,r16
  8051d0:	2389c83a 	sub	r4,r4,r14
  8051d4:	04800044 	movi	r18,1
  8051d8:	003e7d06 	br	804bd0 <__subdf3+0xe4>
  8051dc:	480a977a 	slli	r5,r9,29
  8051e0:	00880034 	movhi	r2,8192
  8051e4:	10bfffc4 	addi	r2,r2,-1
  8051e8:	2084703a 	and	r2,r4,r2
  8051ec:	4812d0fa 	srli	r9,r9,3
  8051f0:	1144b03a 	or	r2,r2,r5
  8051f4:	003f1406 	br	804e48 <__subdf3+0x35c>
  8051f8:	4b92b03a 	or	r9,r9,r14
  8051fc:	4820c03a 	cmpne	r16,r9,zero
  805200:	003f5306 	br	804f50 <__subdf3+0x464>
  805204:	1c3ff804 	addi	r16,r3,-32
  805208:	19000820 	cmpeqi	r4,r3,32
  80520c:	4c04d83a 	srl	r2,r9,r16
  805210:	2000041e 	bne	r4,zero,805224 <__subdf3+0x738>
  805214:	01001004 	movi	r4,64
  805218:	20c7c83a 	sub	r3,r4,r3
  80521c:	48d2983a 	sll	r9,r9,r3
  805220:	725cb03a 	or	r14,r14,r9
  805224:	7020c03a 	cmpne	r16,r14,zero
  805228:	80a0b03a 	or	r16,r16,r2
  80522c:	003f9b06 	br	80509c <__subdf3+0x5b0>
  805230:	103fdd26 	beq	r2,zero,8051a8 <__subdf3+0x6bc>
  805234:	7b5ab03a 	or	r13,r15,r13
  805238:	480a977a 	slli	r5,r9,29
  80523c:	4812d0fa 	srli	r9,r9,3
  805240:	6800251e 	bne	r13,zero,8052d8 <__subdf3+0x7ec>
  805244:	00880034 	movhi	r2,8192
  805248:	10bfffc4 	addi	r2,r2,-1
  80524c:	2084703a 	and	r2,r4,r2
  805250:	1144b03a 	or	r2,r2,r5
  805254:	003f1506 	br	804eac <__subdf3+0x3c0>
  805258:	103f7526 	beq	r2,zero,805030 <__subdf3+0x544>
  80525c:	7808977a 	slli	r4,r15,29
  805260:	00880034 	movhi	r2,8192
  805264:	10bfffc4 	addi	r2,r2,-1
  805268:	3084703a 	and	r2,r6,r2
  80526c:	7812d0fa 	srli	r9,r15,3
  805270:	1104b03a 	or	r2,r2,r4
  805274:	5823883a 	mov	r17,r11
  805278:	003ef306 	br	804e48 <__subdf3+0x35c>
  80527c:	6ba1c83a 	sub	r16,r13,r14
  805280:	7a49c83a 	sub	r4,r15,r9
  805284:	6c1b803a 	cmpltu	r13,r13,r16
  805288:	2349c83a 	sub	r4,r4,r13
  80528c:	04800044 	movi	r18,1
  805290:	003e4f06 	br	804bd0 <__subdf3+0xe4>
  805294:	4806977a 	slli	r3,r9,29
  805298:	00880034 	movhi	r2,8192
  80529c:	10bfffc4 	addi	r2,r2,-1
  8052a0:	2084703a 	and	r2,r4,r2
  8052a4:	4812d0fa 	srli	r9,r9,3
  8052a8:	10c4b03a 	or	r2,r2,r3
  8052ac:	003eff06 	br	804eac <__subdf3+0x3c0>
  8052b0:	7808977a 	slli	r4,r15,29
  8052b4:	00880034 	movhi	r2,8192
  8052b8:	10bfffc4 	addi	r2,r2,-1
  8052bc:	3084703a 	and	r2,r6,r2
  8052c0:	7812d0fa 	srli	r9,r15,3
  8052c4:	1104b03a 	or	r2,r2,r4
  8052c8:	003edd06 	br	804e40 <__subdf3+0x354>
  8052cc:	480a977a 	slli	r5,r9,29
  8052d0:	4812d0fa 	srli	r9,r9,3
  8052d4:	103fdb26 	beq	r2,zero,805244 <__subdf3+0x758>
  8052d8:	00c80034 	movhi	r3,8192
  8052dc:	18ffffc4 	addi	r3,r3,-1
  8052e0:	20c4703a 	and	r2,r4,r3
  8052e4:	4900022c 	andhi	r4,r9,8
  8052e8:	1144b03a 	or	r2,r2,r5
  8052ec:	203eef26 	beq	r4,zero,804eac <__subdf3+0x3c0>
  8052f0:	7808d0fa 	srli	r4,r15,3
  8052f4:	2140022c 	andhi	r5,r4,8
  8052f8:	283eec1e 	bne	r5,zero,804eac <__subdf3+0x3c0>
  8052fc:	7804977a 	slli	r2,r15,29
  805300:	30cc703a 	and	r6,r6,r3
  805304:	5823883a 	mov	r17,r11
  805308:	3084b03a 	or	r2,r6,r2
  80530c:	2013883a 	mov	r9,r4
  805310:	003ee606 	br	804eac <__subdf3+0x3c0>
  805314:	7808977a 	slli	r4,r15,29
  805318:	00880034 	movhi	r2,8192
  80531c:	10bfffc4 	addi	r2,r2,-1
  805320:	3084703a 	and	r2,r6,r2
  805324:	7812d0fa 	srli	r9,r15,3
  805328:	1104b03a 	or	r2,r2,r4
  80532c:	003ec606 	br	804e48 <__subdf3+0x35c>
  805330:	18bff804 	addi	r2,r3,-32
  805334:	19000820 	cmpeqi	r4,r3,32
  805338:	4884d83a 	srl	r2,r9,r2
  80533c:	2000041e 	bne	r4,zero,805350 <__subdf3+0x864>
  805340:	01001004 	movi	r4,64
  805344:	20c7c83a 	sub	r3,r4,r3
  805348:	48d2983a 	sll	r9,r9,r3
  80534c:	725cb03a 	or	r14,r14,r9
  805350:	7020c03a 	cmpne	r16,r14,zero
  805354:	80a0b03a 	or	r16,r16,r2
  805358:	003efd06 	br	804f50 <__subdf3+0x464>
  80535c:	7361883a 	add	r16,r14,r13
  805360:	4bc9883a 	add	r4,r9,r15
  805364:	835b803a 	cmpltu	r13,r16,r13
  805368:	2349883a 	add	r4,r4,r13
  80536c:	003f8a06 	br	805198 <__subdf3+0x6ac>
  805370:	8104b03a 	or	r2,r16,r4
  805374:	103f2e26 	beq	r2,zero,805030 <__subdf3+0x544>
  805378:	003eaa06 	br	804e24 <__subdf3+0x338>
  80537c:	02400434 	movhi	r9,16
  805380:	0023883a 	mov	r17,zero
  805384:	00bfffc4 	movi	r2,-1
  805388:	4a7fffc4 	addi	r9,r9,-1
  80538c:	003ec906 	br	804eb4 <__subdf3+0x3c8>
  805390:	0005883a 	mov	r2,zero
  805394:	00c1ffc4 	movi	r3,2047
  805398:	0009883a 	mov	r4,zero
  80539c:	003e4106 	br	804ca4 <__subdf3+0x1b8>

008053a0 <__fixdfsi>:
  8053a0:	2806d53a 	srli	r3,r5,20
  8053a4:	01800434 	movhi	r6,16
  8053a8:	31bfffc4 	addi	r6,r6,-1
  8053ac:	18c1ffcc 	andi	r3,r3,2047
  8053b0:	19c0ffd0 	cmplti	r7,r3,1023
  8053b4:	2810d7fa 	srli	r8,r5,31
  8053b8:	298a703a 	and	r5,r5,r6
  8053bc:	3800061e 	bne	r7,zero,8053d8 <__fixdfsi+0x38>
  8053c0:	18810790 	cmplti	r2,r3,1054
  8053c4:	1000061e 	bne	r2,zero,8053e0 <__fixdfsi+0x40>
  8053c8:	00a00034 	movhi	r2,32768
  8053cc:	10bfffc4 	addi	r2,r2,-1
  8053d0:	4085883a 	add	r2,r8,r2
  8053d4:	f800283a 	ret
  8053d8:	0005883a 	mov	r2,zero
  8053dc:	f800283a 	ret
  8053e0:	01810cc4 	movi	r6,1075
  8053e4:	30cdc83a 	sub	r6,r6,r3
  8053e8:	30800808 	cmpgei	r2,r6,32
  8053ec:	29400434 	orhi	r5,r5,16
  8053f0:	1000071e 	bne	r2,zero,805410 <__fixdfsi+0x70>
  8053f4:	18befb44 	addi	r2,r3,-1043
  8053f8:	2884983a 	sll	r2,r5,r2
  8053fc:	2188d83a 	srl	r4,r4,r6
  805400:	1104b03a 	or	r2,r2,r4
  805404:	403ff526 	beq	r8,zero,8053dc <__fixdfsi+0x3c>
  805408:	0085c83a 	sub	r2,zero,r2
  80540c:	f800283a 	ret
  805410:	008104c4 	movi	r2,1043
  805414:	10c5c83a 	sub	r2,r2,r3
  805418:	2884d83a 	srl	r2,r5,r2
  80541c:	003ff906 	br	805404 <__fixdfsi+0x64>

00805420 <__floatsidf>:
  805420:	defffd04 	addi	sp,sp,-12
  805424:	dfc00215 	stw	ra,8(sp)
  805428:	dc400115 	stw	r17,4(sp)
  80542c:	dc000015 	stw	r16,0(sp)
  805430:	20001326 	beq	r4,zero,805480 <__floatsidf+0x60>
  805434:	2022d7fa 	srli	r17,r4,31
  805438:	2021883a 	mov	r16,r4
  80543c:	20002416 	blt	r4,zero,8054d0 <__floatsidf+0xb0>
  805440:	8009883a 	mov	r4,r16
  805444:	08057d40 	call	8057d4 <__clzsi2>
  805448:	01010784 	movi	r4,1054
  80544c:	2089c83a 	sub	r4,r4,r2
  805450:	114002c8 	cmpgei	r5,r2,11
  805454:	20c1ffcc 	andi	r3,r4,2047
  805458:	2800161e 	bne	r5,zero,8054b4 <__floatsidf+0x94>
  80545c:	010002c4 	movi	r4,11
  805460:	2089c83a 	sub	r4,r4,r2
  805464:	810ad83a 	srl	r5,r16,r4
  805468:	01000434 	movhi	r4,16
  80546c:	10800544 	addi	r2,r2,21
  805470:	213fffc4 	addi	r4,r4,-1
  805474:	8084983a 	sll	r2,r16,r2
  805478:	290a703a 	and	r5,r5,r4
  80547c:	00000406 	br	805490 <__floatsidf+0x70>
  805480:	0023883a 	mov	r17,zero
  805484:	0007883a 	mov	r3,zero
  805488:	000b883a 	mov	r5,zero
  80548c:	0005883a 	mov	r2,zero
  805490:	1808953a 	slli	r4,r3,20
  805494:	880697fa 	slli	r3,r17,31
  805498:	2148b03a 	or	r4,r4,r5
  80549c:	20c6b03a 	or	r3,r4,r3
  8054a0:	dfc00217 	ldw	ra,8(sp)
  8054a4:	dc400117 	ldw	r17,4(sp)
  8054a8:	dc000017 	ldw	r16,0(sp)
  8054ac:	dec00304 	addi	sp,sp,12
  8054b0:	f800283a 	ret
  8054b4:	10bffd44 	addi	r2,r2,-11
  8054b8:	808a983a 	sll	r5,r16,r2
  8054bc:	00800434 	movhi	r2,16
  8054c0:	10bfffc4 	addi	r2,r2,-1
  8054c4:	288a703a 	and	r5,r5,r2
  8054c8:	0005883a 	mov	r2,zero
  8054cc:	003ff006 	br	805490 <__floatsidf+0x70>
  8054d0:	0121c83a 	sub	r16,zero,r4
  8054d4:	003fda06 	br	805440 <__floatsidf+0x20>

008054d8 <__floatunsidf>:
  8054d8:	defffe04 	addi	sp,sp,-8
  8054dc:	dc000015 	stw	r16,0(sp)
  8054e0:	dfc00115 	stw	ra,4(sp)
  8054e4:	2021883a 	mov	r16,r4
  8054e8:	20000f26 	beq	r4,zero,805528 <__floatunsidf+0x50>
  8054ec:	08057d40 	call	8057d4 <__clzsi2>
  8054f0:	00c10784 	movi	r3,1054
  8054f4:	1887c83a 	sub	r3,r3,r2
  8054f8:	110002c8 	cmpgei	r4,r2,11
  8054fc:	18c1ffcc 	andi	r3,r3,2047
  805500:	2000121e 	bne	r4,zero,80554c <__floatunsidf+0x74>
  805504:	014002c4 	movi	r5,11
  805508:	288bc83a 	sub	r5,r5,r2
  80550c:	814ad83a 	srl	r5,r16,r5
  805510:	01000434 	movhi	r4,16
  805514:	10800544 	addi	r2,r2,21
  805518:	213fffc4 	addi	r4,r4,-1
  80551c:	80a0983a 	sll	r16,r16,r2
  805520:	290a703a 	and	r5,r5,r4
  805524:	00000206 	br	805530 <__floatunsidf+0x58>
  805528:	0007883a 	mov	r3,zero
  80552c:	000b883a 	mov	r5,zero
  805530:	1806953a 	slli	r3,r3,20
  805534:	8005883a 	mov	r2,r16
  805538:	1946b03a 	or	r3,r3,r5
  80553c:	dfc00117 	ldw	ra,4(sp)
  805540:	dc000017 	ldw	r16,0(sp)
  805544:	dec00204 	addi	sp,sp,8
  805548:	f800283a 	ret
  80554c:	117ffd44 	addi	r5,r2,-11
  805550:	814a983a 	sll	r5,r16,r5
  805554:	00800434 	movhi	r2,16
  805558:	10bfffc4 	addi	r2,r2,-1
  80555c:	288a703a 	and	r5,r5,r2
  805560:	0021883a 	mov	r16,zero
  805564:	003ff206 	br	805530 <__floatunsidf+0x58>

00805568 <__extendsfdf2>:
  805568:	200ad5fa 	srli	r5,r4,23
  80556c:	defffd04 	addi	sp,sp,-12
  805570:	dc000015 	stw	r16,0(sp)
  805574:	29403fcc 	andi	r5,r5,255
  805578:	04002034 	movhi	r16,128
  80557c:	28800044 	addi	r2,r5,1
  805580:	dc400115 	stw	r17,4(sp)
  805584:	843fffc4 	addi	r16,r16,-1
  805588:	dfc00215 	stw	ra,8(sp)
  80558c:	10803f8c 	andi	r2,r2,254
  805590:	2022d7fa 	srli	r17,r4,31
  805594:	8120703a 	and	r16,r16,r4
  805598:	10000d26 	beq	r2,zero,8055d0 <__extendsfdf2+0x68>
  80559c:	8008d0fa 	srli	r4,r16,3
  8055a0:	8020977a 	slli	r16,r16,29
  8055a4:	28c0e004 	addi	r3,r5,896
  8055a8:	180a953a 	slli	r5,r3,20
  8055ac:	880697fa 	slli	r3,r17,31
  8055b0:	8005883a 	mov	r2,r16
  8055b4:	290ab03a 	or	r5,r5,r4
  8055b8:	28c6b03a 	or	r3,r5,r3
  8055bc:	dfc00217 	ldw	ra,8(sp)
  8055c0:	dc400117 	ldw	r17,4(sp)
  8055c4:	dc000017 	ldw	r16,0(sp)
  8055c8:	dec00304 	addi	sp,sp,12
  8055cc:	f800283a 	ret
  8055d0:	2800111e 	bne	r5,zero,805618 <__extendsfdf2+0xb0>
  8055d4:	80001926 	beq	r16,zero,80563c <__extendsfdf2+0xd4>
  8055d8:	8009883a 	mov	r4,r16
  8055dc:	08057d40 	call	8057d4 <__clzsi2>
  8055e0:	10c002c8 	cmpgei	r3,r2,11
  8055e4:	18001b1e 	bne	r3,zero,805654 <__extendsfdf2+0xec>
  8055e8:	010002c4 	movi	r4,11
  8055ec:	2089c83a 	sub	r4,r4,r2
  8055f0:	10c00544 	addi	r3,r2,21
  8055f4:	810ad83a 	srl	r5,r16,r4
  8055f8:	80e0983a 	sll	r16,r16,r3
  8055fc:	01000434 	movhi	r4,16
  805600:	00c0e244 	movi	r3,905
  805604:	213fffc4 	addi	r4,r4,-1
  805608:	1887c83a 	sub	r3,r3,r2
  80560c:	2908703a 	and	r4,r5,r4
  805610:	18c1ffcc 	andi	r3,r3,2047
  805614:	003fe406 	br	8055a8 <__extendsfdf2+0x40>
  805618:	80000b26 	beq	r16,zero,805648 <__extendsfdf2+0xe0>
  80561c:	800ad0fa 	srli	r5,r16,3
  805620:	00800434 	movhi	r2,16
  805624:	10bfffc4 	addi	r2,r2,-1
  805628:	29000234 	orhi	r4,r5,8
  80562c:	8020977a 	slli	r16,r16,29
  805630:	2088703a 	and	r4,r4,r2
  805634:	00c1ffc4 	movi	r3,2047
  805638:	003fdb06 	br	8055a8 <__extendsfdf2+0x40>
  80563c:	0007883a 	mov	r3,zero
  805640:	0009883a 	mov	r4,zero
  805644:	003fd806 	br	8055a8 <__extendsfdf2+0x40>
  805648:	00c1ffc4 	movi	r3,2047
  80564c:	0009883a 	mov	r4,zero
  805650:	003fd506 	br	8055a8 <__extendsfdf2+0x40>
  805654:	113ffd44 	addi	r4,r2,-11
  805658:	810a983a 	sll	r5,r16,r4
  80565c:	0021883a 	mov	r16,zero
  805660:	003fe606 	br	8055fc <__extendsfdf2+0x94>

00805664 <__truncdfsf2>:
  805664:	2804d53a 	srli	r2,r5,20
  805668:	00c00434 	movhi	r3,16
  80566c:	18ffffc4 	addi	r3,r3,-1
  805670:	28c6703a 	and	r3,r5,r3
  805674:	180c90fa 	slli	r6,r3,3
  805678:	1081ffcc 	andi	r2,r2,2047
  80567c:	2006d77a 	srli	r3,r4,29
  805680:	11c00044 	addi	r7,r2,1
  805684:	39c1ff8c 	andi	r7,r7,2046
  805688:	280ad7fa 	srli	r5,r5,31
  80568c:	201090fa 	slli	r8,r4,3
  805690:	1986b03a 	or	r3,r3,r6
  805694:	38000b26 	beq	r7,zero,8056c4 <__truncdfsf2+0x60>
  805698:	11bf2004 	addi	r6,r2,-896
  80569c:	31c03fc8 	cmpgei	r7,r6,255
  8056a0:	38001226 	beq	r7,zero,8056ec <__truncdfsf2+0x88>
  8056a4:	00bfffc4 	movi	r2,-1
  8056a8:	0007883a 	mov	r3,zero
  8056ac:	10803fcc 	andi	r2,r2,255
  8056b0:	100495fa 	slli	r2,r2,23
  8056b4:	280a97fa 	slli	r5,r5,31
  8056b8:	10c4b03a 	or	r2,r2,r3
  8056bc:	1144b03a 	or	r2,r2,r5
  8056c0:	f800283a 	ret
  8056c4:	1a10b03a 	or	r8,r3,r8
  8056c8:	1000041e 	bne	r2,zero,8056dc <__truncdfsf2+0x78>
  8056cc:	40001d1e 	bne	r8,zero,805744 <__truncdfsf2+0xe0>
  8056d0:	0005883a 	mov	r2,zero
  8056d4:	0007883a 	mov	r3,zero
  8056d8:	003ff406 	br	8056ac <__truncdfsf2+0x48>
  8056dc:	403ff126 	beq	r8,zero,8056a4 <__truncdfsf2+0x40>
  8056e0:	18c01034 	orhi	r3,r3,64
  8056e4:	00bfffc4 	movi	r2,-1
  8056e8:	003ff006 	br	8056ac <__truncdfsf2+0x48>
  8056ec:	0180170e 	bge	zero,r6,80574c <__truncdfsf2+0xe8>
  8056f0:	200891ba 	slli	r4,r4,6
  8056f4:	180690fa 	slli	r3,r3,3
  8056f8:	4010d77a 	srli	r8,r8,29
  8056fc:	2008c03a 	cmpne	r4,r4,zero
  805700:	20c6b03a 	or	r3,r4,r3
  805704:	1a06b03a 	or	r3,r3,r8
  805708:	188001cc 	andi	r2,r3,7
  80570c:	10002f26 	beq	r2,zero,8057cc <__truncdfsf2+0x168>
  805710:	188003cc 	andi	r2,r3,15
  805714:	10800118 	cmpnei	r2,r2,4
  805718:	10000126 	beq	r2,zero,805720 <__truncdfsf2+0xbc>
  80571c:	18c00104 	addi	r3,r3,4
  805720:	1881002c 	andhi	r2,r3,1024
  805724:	10002926 	beq	r2,zero,8057cc <__truncdfsf2+0x168>
  805728:	30800044 	addi	r2,r6,1
  80572c:	11003fe0 	cmpeqi	r4,r2,255
  805730:	203fdc1e 	bne	r4,zero,8056a4 <__truncdfsf2+0x40>
  805734:	180691ba 	slli	r3,r3,6
  805738:	1806d27a 	srli	r3,r3,9
  80573c:	003fdb06 	br	8056ac <__truncdfsf2+0x48>
  805740:	0005883a 	mov	r2,zero
  805744:	00c00144 	movi	r3,5
  805748:	003ffa06 	br	805734 <__truncdfsf2+0xd0>
  80574c:	313ffa50 	cmplti	r4,r6,-23
  805750:	203ffb1e 	bne	r4,zero,805740 <__truncdfsf2+0xdc>
  805754:	01c00784 	movi	r7,30
  805758:	398fc83a 	sub	r7,r7,r6
  80575c:	3a400808 	cmpgei	r9,r7,32
  805760:	19002034 	orhi	r4,r3,128
  805764:	48001126 	beq	r9,zero,8057ac <__truncdfsf2+0x148>
  805768:	00ffff84 	movi	r3,-2
  80576c:	198dc83a 	sub	r6,r3,r6
  805770:	39c00820 	cmpeqi	r7,r7,32
  805774:	218cd83a 	srl	r6,r4,r6
  805778:	3800031e 	bne	r7,zero,805788 <__truncdfsf2+0x124>
  80577c:	10ff2884 	addi	r3,r2,-862
  805780:	20c8983a 	sll	r4,r4,r3
  805784:	4110b03a 	or	r8,r8,r4
  805788:	4006c03a 	cmpne	r3,r8,zero
  80578c:	1986b03a 	or	r3,r3,r6
  805790:	188001cc 	andi	r2,r3,7
  805794:	000d883a 	mov	r6,zero
  805798:	103fdd1e 	bne	r2,zero,805710 <__truncdfsf2+0xac>
  80579c:	1881002c 	andhi	r2,r3,1024
  8057a0:	103fe426 	beq	r2,zero,805734 <__truncdfsf2+0xd0>
  8057a4:	00800044 	movi	r2,1
  8057a8:	003fe206 	br	805734 <__truncdfsf2+0xd0>
  8057ac:	10ff2084 	addi	r3,r2,-894
  8057b0:	40c4983a 	sll	r2,r8,r3
  8057b4:	20c8983a 	sll	r4,r4,r3
  8057b8:	41c6d83a 	srl	r3,r8,r7
  8057bc:	1004c03a 	cmpne	r2,r2,zero
  8057c0:	1108b03a 	or	r4,r2,r4
  8057c4:	1906b03a 	or	r3,r3,r4
  8057c8:	003ff106 	br	805790 <__truncdfsf2+0x12c>
  8057cc:	3005883a 	mov	r2,r6
  8057d0:	003fd806 	br	805734 <__truncdfsf2+0xd0>

008057d4 <__clzsi2>:
  8057d4:	00bfffd4 	movui	r2,65535
  8057d8:	11000436 	bltu	r2,r4,8057ec <__clzsi2+0x18>
  8057dc:	20804030 	cmpltui	r2,r4,256
  8057e0:	10000e26 	beq	r2,zero,80581c <__clzsi2+0x48>
  8057e4:	01400804 	movi	r5,32
  8057e8:	00000406 	br	8057fc <__clzsi2+0x28>
  8057ec:	00804034 	movhi	r2,256
  8057f0:	20800736 	bltu	r4,r2,805810 <__clzsi2+0x3c>
  8057f4:	2008d63a 	srli	r4,r4,24
  8057f8:	01400204 	movi	r5,8
  8057fc:	00c02074 	movhi	r3,129
  805800:	20c7883a 	add	r3,r4,r3
  805804:	188f2803 	ldbu	r2,15520(r3)
  805808:	2885c83a 	sub	r2,r5,r2
  80580c:	f800283a 	ret
  805810:	2008d43a 	srli	r4,r4,16
  805814:	01400404 	movi	r5,16
  805818:	003ff806 	br	8057fc <__clzsi2+0x28>
  80581c:	2008d23a 	srli	r4,r4,8
  805820:	01400604 	movi	r5,24
  805824:	003ff506 	br	8057fc <__clzsi2+0x28>

00805828 <__mulsi3>:
  805828:	0005883a 	mov	r2,zero
  80582c:	20000726 	beq	r4,zero,80584c <__mulsi3+0x24>
  805830:	20c0004c 	andi	r3,r4,1
  805834:	2008d07a 	srli	r4,r4,1
  805838:	18000126 	beq	r3,zero,805840 <__mulsi3+0x18>
  80583c:	1145883a 	add	r2,r2,r5
  805840:	294b883a 	add	r5,r5,r5
  805844:	203ffa1e 	bne	r4,zero,805830 <__mulsi3+0x8>
  805848:	f800283a 	ret
  80584c:	f800283a 	ret

00805850 <fcvt>:
  805850:	defffd04 	addi	sp,sp,-12
  805854:	d8800317 	ldw	r2,12(sp)
  805858:	d8000115 	stw	zero,4(sp)
  80585c:	dfc00215 	stw	ra,8(sp)
  805860:	d8800015 	stw	r2,0(sp)
  805864:	0809b140 	call	809b14 <fcvtbuf>
  805868:	dfc00217 	ldw	ra,8(sp)
  80586c:	dec00304 	addi	sp,sp,12
  805870:	f800283a 	ret

00805874 <fcvtf>:
  805874:	defffa04 	addi	sp,sp,-24
  805878:	dfc00515 	stw	ra,20(sp)
  80587c:	dc800415 	stw	r18,16(sp)
  805880:	dc400315 	stw	r17,12(sp)
  805884:	dc000215 	stw	r16,8(sp)
  805888:	3023883a 	mov	r17,r6
  80588c:	2821883a 	mov	r16,r5
  805890:	3825883a 	mov	r18,r7
  805894:	08055680 	call	805568 <__extendsfdf2>
  805898:	880f883a 	mov	r7,r17
  80589c:	d8000115 	stw	zero,4(sp)
  8058a0:	dc800015 	stw	r18,0(sp)
  8058a4:	800d883a 	mov	r6,r16
  8058a8:	1009883a 	mov	r4,r2
  8058ac:	180b883a 	mov	r5,r3
  8058b0:	0809b140 	call	809b14 <fcvtbuf>
  8058b4:	dfc00517 	ldw	ra,20(sp)
  8058b8:	dc800417 	ldw	r18,16(sp)
  8058bc:	dc400317 	ldw	r17,12(sp)
  8058c0:	dc000217 	ldw	r16,8(sp)
  8058c4:	dec00604 	addi	sp,sp,24
  8058c8:	f800283a 	ret

008058cc <gcvt>:
  8058cc:	defff804 	addi	sp,sp,-32
  8058d0:	dc400415 	stw	r17,16(sp)
  8058d4:	dc000315 	stw	r16,12(sp)
  8058d8:	3023883a 	mov	r17,r6
  8058dc:	3821883a 	mov	r16,r7
  8058e0:	000d883a 	mov	r6,zero
  8058e4:	000f883a 	mov	r7,zero
  8058e8:	dcc00615 	stw	r19,24(sp)
  8058ec:	dc800515 	stw	r18,20(sp)
  8058f0:	dfc00715 	stw	ra,28(sp)
  8058f4:	2027883a 	mov	r19,r4
  8058f8:	2825883a 	mov	r18,r5
  8058fc:	08118180 	call	811818 <__ledf2>
  805900:	10001416 	blt	r2,zero,805954 <gcvt+0x88>
  805904:	8005883a 	mov	r2,r16
  805908:	00c02074 	movhi	r3,129
  80590c:	19139817 	ldw	r4,20064(r3)
  805910:	00c019c4 	movi	r3,103
  805914:	d8000215 	stw	zero,8(sp)
  805918:	d8c00115 	stw	r3,4(sp)
  80591c:	d8800015 	stw	r2,0(sp)
  805920:	880f883a 	mov	r7,r17
  805924:	980b883a 	mov	r5,r19
  805928:	900d883a 	mov	r6,r18
  80592c:	0809d680 	call	809d68 <_gcvt>
  805930:	10000d26 	beq	r2,zero,805968 <gcvt+0x9c>
  805934:	8005883a 	mov	r2,r16
  805938:	dfc00717 	ldw	ra,28(sp)
  80593c:	dcc00617 	ldw	r19,24(sp)
  805940:	dc800517 	ldw	r18,20(sp)
  805944:	dc400417 	ldw	r17,16(sp)
  805948:	dc000317 	ldw	r16,12(sp)
  80594c:	dec00804 	addi	sp,sp,32
  805950:	f800283a 	ret
  805954:	00800b44 	movi	r2,45
  805958:	80800005 	stb	r2,0(r16)
  80595c:	8c7fffc4 	addi	r17,r17,-1
  805960:	80800044 	addi	r2,r16,1
  805964:	003fe806 	br	805908 <gcvt+0x3c>
  805968:	0021883a 	mov	r16,zero
  80596c:	003ff106 	br	805934 <gcvt+0x68>

00805970 <gcvtf>:
  805970:	defff804 	addi	sp,sp,-32
  805974:	dcc00615 	stw	r19,24(sp)
  805978:	dc800515 	stw	r18,20(sp)
  80597c:	dc400415 	stw	r17,16(sp)
  805980:	dc000315 	stw	r16,12(sp)
  805984:	2025883a 	mov	r18,r4
  805988:	dfc00715 	stw	ra,28(sp)
  80598c:	2823883a 	mov	r17,r5
  805990:	3021883a 	mov	r16,r6
  805994:	08055680 	call	805568 <__extendsfdf2>
  805998:	9009883a 	mov	r4,r18
  80599c:	000b883a 	mov	r5,zero
  8059a0:	1027883a 	mov	r19,r2
  8059a4:	1825883a 	mov	r18,r3
  8059a8:	0810e340 	call	810e34 <__lesf2>
  8059ac:	10001416 	blt	r2,zero,805a00 <gcvtf+0x90>
  8059b0:	8005883a 	mov	r2,r16
  8059b4:	00c02074 	movhi	r3,129
  8059b8:	19139817 	ldw	r4,20064(r3)
  8059bc:	00c019c4 	movi	r3,103
  8059c0:	d8000215 	stw	zero,8(sp)
  8059c4:	d8c00115 	stw	r3,4(sp)
  8059c8:	d8800015 	stw	r2,0(sp)
  8059cc:	880f883a 	mov	r7,r17
  8059d0:	980b883a 	mov	r5,r19
  8059d4:	900d883a 	mov	r6,r18
